(lp0
(lp1
cdecimal
Decimal
p2
(S'63.0'
p3
tp4
Rp5
ag2
(S'1.0'
p6
tp7
Rp8
ag2
(S'1.0'
p9
tp10
Rp11
ag2
(S'145.0'
p12
tp13
Rp14
ag2
(S'233.0'
p15
tp16
Rp17
ag2
(S'1.0'
p18
tp19
Rp20
ag2
(S'2.0'
p21
tp22
Rp23
ag2
(S'150.0'
p24
tp25
Rp26
ag2
(S'0.0'
p27
tp28
Rp29
ag2
(S'2.3'
p30
tp31
Rp32
ag2
(S'3.0'
p33
tp34
Rp35
ag2
(S'0.0'
p36
tp37
Rp38
ag2
(S'6.0'
p39
tp40
Rp41
ag2
(S'0'
p42
tp43
Rp44
aa(lp45
g2
(S'67.0'
p46
tp47
Rp48
ag2
(S'1.0'
p49
tp50
Rp51
ag2
(S'4.0'
p52
tp53
Rp54
ag2
(S'160.0'
p55
tp56
Rp57
ag2
(S'286.0'
p58
tp59
Rp60
ag2
(S'0.0'
p61
tp62
Rp63
ag2
(S'2.0'
p64
tp65
Rp66
ag2
(S'108.0'
p67
tp68
Rp69
ag2
(S'1.0'
p70
tp71
Rp72
ag2
(S'1.5'
p73
tp74
Rp75
ag2
(S'2.0'
p76
tp77
Rp78
ag2
(S'3.0'
p79
tp80
Rp81
ag2
(S'3.0'
p82
tp83
Rp84
ag2
(S'2'
p85
tp86
Rp87
aa(lp88
g2
(S'67.0'
p89
tp90
Rp91
ag2
(S'1.0'
p92
tp93
Rp94
ag2
(S'4.0'
p95
tp96
Rp97
ag2
(S'120.0'
p98
tp99
Rp100
ag2
(S'229.0'
p101
tp102
Rp103
ag2
(S'0.0'
p104
tp105
Rp106
ag2
(S'2.0'
p107
tp108
Rp109
ag2
(S'129.0'
p110
tp111
Rp112
ag2
(S'1.0'
p113
tp114
Rp115
ag2
(S'2.6'
p116
tp117
Rp118
ag2
(S'2.0'
p119
tp120
Rp121
ag2
(S'2.0'
p122
tp123
Rp124
ag2
(S'7.0'
p125
tp126
Rp127
ag2
(S'1'
p128
tp129
Rp130
aa(lp131
g2
(S'37.0'
p132
tp133
Rp134
ag2
(S'1.0'
p135
tp136
Rp137
ag2
(S'3.0'
p138
tp139
Rp140
ag2
(S'130.0'
p141
tp142
Rp143
ag2
(S'250.0'
p144
tp145
Rp146
ag2
(S'0.0'
p147
tp148
Rp149
ag2
(S'0.0'
p150
tp151
Rp152
ag2
(S'187.0'
p153
tp154
Rp155
ag2
(S'0.0'
p156
tp157
Rp158
ag2
(S'3.5'
p159
tp160
Rp161
ag2
(S'3.0'
p162
tp163
Rp164
ag2
(S'0.0'
p165
tp166
Rp167
ag2
(S'3.0'
p168
tp169
Rp170
ag2
(g42
tp171
Rp172
aa(lp173
g2
(S'41.0'
p174
tp175
Rp176
ag2
(S'0.0'
p177
tp178
Rp179
ag2
(S'2.0'
p180
tp181
Rp182
ag2
(S'130.0'
p183
tp184
Rp185
ag2
(S'204.0'
p186
tp187
Rp188
ag2
(S'0.0'
p189
tp190
Rp191
ag2
(S'2.0'
p192
tp193
Rp194
ag2
(S'172.0'
p195
tp196
Rp197
ag2
(S'0.0'
p198
tp199
Rp200
ag2
(S'1.4'
p201
tp202
Rp203
ag2
(S'1.0'
p204
tp205
Rp206
ag2
(S'0.0'
p207
tp208
Rp209
ag2
(S'3.0'
p210
tp211
Rp212
ag2
(g42
tp213
Rp214
aa(lp215
g2
(S'56.0'
p216
tp217
Rp218
ag2
(S'1.0'
p219
tp220
Rp221
ag2
(S'2.0'
p222
tp223
Rp224
ag2
(S'120.0'
p225
tp226
Rp227
ag2
(S'236.0'
p228
tp229
Rp230
ag2
(S'0.0'
p231
tp232
Rp233
ag2
(S'0.0'
p234
tp235
Rp236
ag2
(S'178.0'
p237
tp238
Rp239
ag2
(S'0.0'
p240
tp241
Rp242
ag2
(S'0.8'
p243
tp244
Rp245
ag2
(S'1.0'
p246
tp247
Rp248
ag2
(S'0.0'
p249
tp250
Rp251
ag2
(S'3.0'
p252
tp253
Rp254
ag2
(g42
tp255
Rp256
aa(lp257
g2
(S'62.0'
p258
tp259
Rp260
ag2
(S'0.0'
p261
tp262
Rp263
ag2
(S'4.0'
p264
tp265
Rp266
ag2
(S'140.0'
p267
tp268
Rp269
ag2
(S'268.0'
p270
tp271
Rp272
ag2
(S'0.0'
p273
tp274
Rp275
ag2
(S'2.0'
p276
tp277
Rp278
ag2
(S'160.0'
p279
tp280
Rp281
ag2
(S'0.0'
p282
tp283
Rp284
ag2
(S'3.6'
p285
tp286
Rp287
ag2
(S'3.0'
p288
tp289
Rp290
ag2
(S'2.0'
p291
tp292
Rp293
ag2
(S'3.0'
p294
tp295
Rp296
ag2
(S'3'
p297
tp298
Rp299
aa(lp300
g2
(S'57.0'
p301
tp302
Rp303
ag2
(S'0.0'
p304
tp305
Rp306
ag2
(S'4.0'
p307
tp308
Rp309
ag2
(S'120.0'
p310
tp311
Rp312
ag2
(S'354.0'
p313
tp314
Rp315
ag2
(S'0.0'
p316
tp317
Rp318
ag2
(S'0.0'
p319
tp320
Rp321
ag2
(S'163.0'
p322
tp323
Rp324
ag2
(S'1.0'
p325
tp326
Rp327
ag2
(S'0.6'
p328
tp329
Rp330
ag2
(S'1.0'
p331
tp332
Rp333
ag2
(S'0.0'
p334
tp335
Rp336
ag2
(S'3.0'
p337
tp338
Rp339
ag2
(g42
tp340
Rp341
aa(lp342
g2
(S'63.0'
p343
tp344
Rp345
ag2
(S'1.0'
p346
tp347
Rp348
ag2
(S'4.0'
p349
tp350
Rp351
ag2
(S'130.0'
p352
tp353
Rp354
ag2
(S'254.0'
p355
tp356
Rp357
ag2
(S'0.0'
p358
tp359
Rp360
ag2
(S'2.0'
p361
tp362
Rp363
ag2
(S'147.0'
p364
tp365
Rp366
ag2
(S'0.0'
p367
tp368
Rp369
ag2
(S'1.4'
p370
tp371
Rp372
ag2
(S'2.0'
p373
tp374
Rp375
ag2
(S'1.0'
p376
tp377
Rp378
ag2
(S'7.0'
p379
tp380
Rp381
ag2
(g85
tp382
Rp383
aa(lp384
g2
(S'53.0'
p385
tp386
Rp387
ag2
(S'1.0'
p388
tp389
Rp390
ag2
(S'4.0'
p391
tp392
Rp393
ag2
(S'140.0'
p394
tp395
Rp396
ag2
(S'203.0'
p397
tp398
Rp399
ag2
(S'1.0'
p400
tp401
Rp402
ag2
(S'2.0'
p403
tp404
Rp405
ag2
(S'155.0'
p406
tp407
Rp408
ag2
(S'1.0'
p409
tp410
Rp411
ag2
(S'3.1'
p412
tp413
Rp414
ag2
(S'3.0'
p415
tp416
Rp417
ag2
(S'0.0'
p418
tp419
Rp420
ag2
(S'7.0'
p421
tp422
Rp423
ag2
(g128
tp424
Rp425
aa(lp426
g2
(S'57.0'
p427
tp428
Rp429
ag2
(S'1.0'
p430
tp431
Rp432
ag2
(S'4.0'
p433
tp434
Rp435
ag2
(S'140.0'
p436
tp437
Rp438
ag2
(S'192.0'
p439
tp440
Rp441
ag2
(S'0.0'
p442
tp443
Rp444
ag2
(S'0.0'
p445
tp446
Rp447
ag2
(S'148.0'
p448
tp449
Rp450
ag2
(S'0.0'
p451
tp452
Rp453
ag2
(S'0.4'
p454
tp455
Rp456
ag2
(S'2.0'
p457
tp458
Rp459
ag2
(S'0.0'
p460
tp461
Rp462
ag2
(S'6.0'
p463
tp464
Rp465
ag2
(g42
tp466
Rp467
aa(lp468
g2
(S'56.0'
p469
tp470
Rp471
ag2
(S'0.0'
p472
tp473
Rp474
ag2
(S'2.0'
p475
tp476
Rp477
ag2
(S'140.0'
p478
tp479
Rp480
ag2
(S'294.0'
p481
tp482
Rp483
ag2
(S'0.0'
p484
tp485
Rp486
ag2
(S'2.0'
p487
tp488
Rp489
ag2
(S'153.0'
p490
tp491
Rp492
ag2
(S'0.0'
p493
tp494
Rp495
ag2
(S'1.3'
p496
tp497
Rp498
ag2
(S'2.0'
p499
tp500
Rp501
ag2
(S'0.0'
p502
tp503
Rp504
ag2
(S'3.0'
p505
tp506
Rp507
ag2
(g42
tp508
Rp509
aa(lp510
g2
(S'56.0'
p511
tp512
Rp513
ag2
(S'1.0'
p514
tp515
Rp516
ag2
(S'3.0'
p517
tp518
Rp519
ag2
(S'130.0'
p520
tp521
Rp522
ag2
(S'256.0'
p523
tp524
Rp525
ag2
(S'1.0'
p526
tp527
Rp528
ag2
(S'2.0'
p529
tp530
Rp531
ag2
(S'142.0'
p532
tp533
Rp534
ag2
(S'1.0'
p535
tp536
Rp537
ag2
(S'0.6'
p538
tp539
Rp540
ag2
(S'2.0'
p541
tp542
Rp543
ag2
(S'1.0'
p544
tp545
Rp546
ag2
(S'6.0'
p547
tp548
Rp549
ag2
(g85
tp550
Rp551
aa(lp552
g2
(S'44.0'
p553
tp554
Rp555
ag2
(S'1.0'
p556
tp557
Rp558
ag2
(S'2.0'
p559
tp560
Rp561
ag2
(S'120.0'
p562
tp563
Rp564
ag2
(S'263.0'
p565
tp566
Rp567
ag2
(S'0.0'
p568
tp569
Rp570
ag2
(S'0.0'
p571
tp572
Rp573
ag2
(S'173.0'
p574
tp575
Rp576
ag2
(S'0.0'
p577
tp578
Rp579
ag2
(S'0.0'
p580
tp581
Rp582
ag2
(S'1.0'
p583
tp584
Rp585
ag2
(S'0.0'
p586
tp587
Rp588
ag2
(S'7.0'
p589
tp590
Rp591
ag2
(g42
tp592
Rp593
aa(lp594
g2
(S'52.0'
p595
tp596
Rp597
ag2
(S'1.0'
p598
tp599
Rp600
ag2
(S'3.0'
p601
tp602
Rp603
ag2
(S'172.0'
p604
tp605
Rp606
ag2
(S'199.0'
p607
tp608
Rp609
ag2
(S'1.0'
p610
tp611
Rp612
ag2
(S'0.0'
p613
tp614
Rp615
ag2
(S'162.0'
p616
tp617
Rp618
ag2
(S'0.0'
p619
tp620
Rp621
ag2
(S'0.5'
p622
tp623
Rp624
ag2
(S'1.0'
p625
tp626
Rp627
ag2
(S'0.0'
p628
tp629
Rp630
ag2
(S'7.0'
p631
tp632
Rp633
ag2
(g42
tp634
Rp635
aa(lp636
g2
(S'57.0'
p637
tp638
Rp639
ag2
(S'1.0'
p640
tp641
Rp642
ag2
(S'3.0'
p643
tp644
Rp645
ag2
(S'150.0'
p646
tp647
Rp648
ag2
(S'168.0'
p649
tp650
Rp651
ag2
(S'0.0'
p652
tp653
Rp654
ag2
(S'0.0'
p655
tp656
Rp657
ag2
(S'174.0'
p658
tp659
Rp660
ag2
(S'0.0'
p661
tp662
Rp663
ag2
(S'1.6'
p664
tp665
Rp666
ag2
(S'1.0'
p667
tp668
Rp669
ag2
(S'0.0'
p670
tp671
Rp672
ag2
(S'3.0'
p673
tp674
Rp675
ag2
(g42
tp676
Rp677
aa(lp678
g2
(S'48.0'
p679
tp680
Rp681
ag2
(S'1.0'
p682
tp683
Rp684
ag2
(S'2.0'
p685
tp686
Rp687
ag2
(S'110.0'
p688
tp689
Rp690
ag2
(S'229.0'
p691
tp692
Rp693
ag2
(S'0.0'
p694
tp695
Rp696
ag2
(S'0.0'
p697
tp698
Rp699
ag2
(S'168.0'
p700
tp701
Rp702
ag2
(S'0.0'
p703
tp704
Rp705
ag2
(S'1.0'
p706
tp707
Rp708
ag2
(S'3.0'
p709
tp710
Rp711
ag2
(S'0.0'
p712
tp713
Rp714
ag2
(S'7.0'
p715
tp716
Rp717
ag2
(g128
tp718
Rp719
aa(lp720
g2
(S'54.0'
p721
tp722
Rp723
ag2
(S'1.0'
p724
tp725
Rp726
ag2
(S'4.0'
p727
tp728
Rp729
ag2
(S'140.0'
p730
tp731
Rp732
ag2
(S'239.0'
p733
tp734
Rp735
ag2
(S'0.0'
p736
tp737
Rp738
ag2
(S'0.0'
p739
tp740
Rp741
ag2
(S'160.0'
p742
tp743
Rp744
ag2
(S'0.0'
p745
tp746
Rp747
ag2
(S'1.2'
p748
tp749
Rp750
ag2
(S'1.0'
p751
tp752
Rp753
ag2
(S'0.0'
p754
tp755
Rp756
ag2
(S'3.0'
p757
tp758
Rp759
ag2
(g42
tp760
Rp761
aa(lp762
g2
(S'48.0'
p763
tp764
Rp765
ag2
(S'0.0'
p766
tp767
Rp768
ag2
(S'3.0'
p769
tp770
Rp771
ag2
(S'130.0'
p772
tp773
Rp774
ag2
(S'275.0'
p775
tp776
Rp777
ag2
(S'0.0'
p778
tp779
Rp780
ag2
(S'0.0'
p781
tp782
Rp783
ag2
(S'139.0'
p784
tp785
Rp786
ag2
(S'0.0'
p787
tp788
Rp789
ag2
(S'0.2'
p790
tp791
Rp792
ag2
(S'1.0'
p793
tp794
Rp795
ag2
(S'0.0'
p796
tp797
Rp798
ag2
(S'3.0'
p799
tp800
Rp801
ag2
(g42
tp802
Rp803
aa(lp804
g2
(S'49.0'
p805
tp806
Rp807
ag2
(S'1.0'
p808
tp809
Rp810
ag2
(S'2.0'
p811
tp812
Rp813
ag2
(S'130.0'
p814
tp815
Rp816
ag2
(S'266.0'
p817
tp818
Rp819
ag2
(S'0.0'
p820
tp821
Rp822
ag2
(S'0.0'
p823
tp824
Rp825
ag2
(S'171.0'
p826
tp827
Rp828
ag2
(S'0.0'
p829
tp830
Rp831
ag2
(S'0.6'
p832
tp833
Rp834
ag2
(S'1.0'
p835
tp836
Rp837
ag2
(S'0.0'
p838
tp839
Rp840
ag2
(S'3.0'
p841
tp842
Rp843
ag2
(g42
tp844
Rp845
aa(lp846
g2
(S'64.0'
p847
tp848
Rp849
ag2
(S'1.0'
p850
tp851
Rp852
ag2
(S'1.0'
p853
tp854
Rp855
ag2
(S'110.0'
p856
tp857
Rp858
ag2
(S'211.0'
p859
tp860
Rp861
ag2
(S'0.0'
p862
tp863
Rp864
ag2
(S'2.0'
p865
tp866
Rp867
ag2
(S'144.0'
p868
tp869
Rp870
ag2
(S'1.0'
p871
tp872
Rp873
ag2
(S'1.8'
p874
tp875
Rp876
ag2
(S'2.0'
p877
tp878
Rp879
ag2
(S'0.0'
p880
tp881
Rp882
ag2
(S'3.0'
p883
tp884
Rp885
ag2
(g42
tp886
Rp887
aa(lp888
g2
(S'58.0'
p889
tp890
Rp891
ag2
(S'0.0'
p892
tp893
Rp894
ag2
(S'1.0'
p895
tp896
Rp897
ag2
(S'150.0'
p898
tp899
Rp900
ag2
(S'283.0'
p901
tp902
Rp903
ag2
(S'1.0'
p904
tp905
Rp906
ag2
(S'2.0'
p907
tp908
Rp909
ag2
(S'162.0'
p910
tp911
Rp912
ag2
(S'0.0'
p913
tp914
Rp915
ag2
(S'1.0'
p916
tp917
Rp918
ag2
(S'1.0'
p919
tp920
Rp921
ag2
(S'0.0'
p922
tp923
Rp924
ag2
(S'3.0'
p925
tp926
Rp927
ag2
(g42
tp928
Rp929
aa(lp930
g2
(S'58.0'
p931
tp932
Rp933
ag2
(S'1.0'
p934
tp935
Rp936
ag2
(S'2.0'
p937
tp938
Rp939
ag2
(S'120.0'
p940
tp941
Rp942
ag2
(S'284.0'
p943
tp944
Rp945
ag2
(S'0.0'
p946
tp947
Rp948
ag2
(S'2.0'
p949
tp950
Rp951
ag2
(S'160.0'
p952
tp953
Rp954
ag2
(S'0.0'
p955
tp956
Rp957
ag2
(S'1.8'
p958
tp959
Rp960
ag2
(S'2.0'
p961
tp962
Rp963
ag2
(S'0.0'
p964
tp965
Rp966
ag2
(S'3.0'
p967
tp968
Rp969
ag2
(g128
tp970
Rp971
aa(lp972
g2
(S'58.0'
p973
tp974
Rp975
ag2
(S'1.0'
p976
tp977
Rp978
ag2
(S'3.0'
p979
tp980
Rp981
ag2
(S'132.0'
p982
tp983
Rp984
ag2
(S'224.0'
p985
tp986
Rp987
ag2
(S'0.0'
p988
tp989
Rp990
ag2
(S'2.0'
p991
tp992
Rp993
ag2
(S'173.0'
p994
tp995
Rp996
ag2
(S'0.0'
p997
tp998
Rp999
ag2
(S'3.2'
p1000
tp1001
Rp1002
ag2
(S'1.0'
p1003
tp1004
Rp1005
ag2
(S'2.0'
p1006
tp1007
Rp1008
ag2
(S'7.0'
p1009
tp1010
Rp1011
ag2
(g297
tp1012
Rp1013
aa(lp1014
g2
(S'60.0'
p1015
tp1016
Rp1017
ag2
(S'1.0'
p1018
tp1019
Rp1020
ag2
(S'4.0'
p1021
tp1022
Rp1023
ag2
(S'130.0'
p1024
tp1025
Rp1026
ag2
(S'206.0'
p1027
tp1028
Rp1029
ag2
(S'0.0'
p1030
tp1031
Rp1032
ag2
(S'2.0'
p1033
tp1034
Rp1035
ag2
(S'132.0'
p1036
tp1037
Rp1038
ag2
(S'1.0'
p1039
tp1040
Rp1041
ag2
(S'2.4'
p1042
tp1043
Rp1044
ag2
(S'2.0'
p1045
tp1046
Rp1047
ag2
(S'2.0'
p1048
tp1049
Rp1050
ag2
(S'7.0'
p1051
tp1052
Rp1053
ag2
(S'4'
p1054
tp1055
Rp1056
aa(lp1057
g2
(S'50.0'
p1058
tp1059
Rp1060
ag2
(S'0.0'
p1061
tp1062
Rp1063
ag2
(S'3.0'
p1064
tp1065
Rp1066
ag2
(S'120.0'
p1067
tp1068
Rp1069
ag2
(S'219.0'
p1070
tp1071
Rp1072
ag2
(S'0.0'
p1073
tp1074
Rp1075
ag2
(S'0.0'
p1076
tp1077
Rp1078
ag2
(S'158.0'
p1079
tp1080
Rp1081
ag2
(S'0.0'
p1082
tp1083
Rp1084
ag2
(S'1.6'
p1085
tp1086
Rp1087
ag2
(S'2.0'
p1088
tp1089
Rp1090
ag2
(S'0.0'
p1091
tp1092
Rp1093
ag2
(S'3.0'
p1094
tp1095
Rp1096
ag2
(g42
tp1097
Rp1098
aa(lp1099
g2
(S'58.0'
p1100
tp1101
Rp1102
ag2
(S'0.0'
p1103
tp1104
Rp1105
ag2
(S'3.0'
p1106
tp1107
Rp1108
ag2
(S'120.0'
p1109
tp1110
Rp1111
ag2
(S'340.0'
p1112
tp1113
Rp1114
ag2
(S'0.0'
p1115
tp1116
Rp1117
ag2
(S'0.0'
p1118
tp1119
Rp1120
ag2
(S'172.0'
p1121
tp1122
Rp1123
ag2
(S'0.0'
p1124
tp1125
Rp1126
ag2
(S'0.0'
p1127
tp1128
Rp1129
ag2
(S'1.0'
p1130
tp1131
Rp1132
ag2
(S'0.0'
p1133
tp1134
Rp1135
ag2
(S'3.0'
p1136
tp1137
Rp1138
ag2
(g42
tp1139
Rp1140
aa(lp1141
g2
(S'66.0'
p1142
tp1143
Rp1144
ag2
(S'0.0'
p1145
tp1146
Rp1147
ag2
(S'1.0'
p1148
tp1149
Rp1150
ag2
(S'150.0'
p1151
tp1152
Rp1153
ag2
(S'226.0'
p1154
tp1155
Rp1156
ag2
(S'0.0'
p1157
tp1158
Rp1159
ag2
(S'0.0'
p1160
tp1161
Rp1162
ag2
(S'114.0'
p1163
tp1164
Rp1165
ag2
(S'0.0'
p1166
tp1167
Rp1168
ag2
(S'2.6'
p1169
tp1170
Rp1171
ag2
(S'3.0'
p1172
tp1173
Rp1174
ag2
(S'0.0'
p1175
tp1176
Rp1177
ag2
(S'3.0'
p1178
tp1179
Rp1180
ag2
(g42
tp1181
Rp1182
aa(lp1183
g2
(S'43.0'
p1184
tp1185
Rp1186
ag2
(S'1.0'
p1187
tp1188
Rp1189
ag2
(S'4.0'
p1190
tp1191
Rp1192
ag2
(S'150.0'
p1193
tp1194
Rp1195
ag2
(S'247.0'
p1196
tp1197
Rp1198
ag2
(S'0.0'
p1199
tp1200
Rp1201
ag2
(S'0.0'
p1202
tp1203
Rp1204
ag2
(S'171.0'
p1205
tp1206
Rp1207
ag2
(S'0.0'
p1208
tp1209
Rp1210
ag2
(S'1.5'
p1211
tp1212
Rp1213
ag2
(S'1.0'
p1214
tp1215
Rp1216
ag2
(S'0.0'
p1217
tp1218
Rp1219
ag2
(S'3.0'
p1220
tp1221
Rp1222
ag2
(g42
tp1223
Rp1224
aa(lp1225
g2
(S'40.0'
p1226
tp1227
Rp1228
ag2
(S'1.0'
p1229
tp1230
Rp1231
ag2
(S'4.0'
p1232
tp1233
Rp1234
ag2
(S'110.0'
p1235
tp1236
Rp1237
ag2
(S'167.0'
p1238
tp1239
Rp1240
ag2
(S'0.0'
p1241
tp1242
Rp1243
ag2
(S'2.0'
p1244
tp1245
Rp1246
ag2
(S'114.0'
p1247
tp1248
Rp1249
ag2
(S'1.0'
p1250
tp1251
Rp1252
ag2
(S'2.0'
p1253
tp1254
Rp1255
ag2
(S'2.0'
p1256
tp1257
Rp1258
ag2
(S'0.0'
p1259
tp1260
Rp1261
ag2
(S'7.0'
p1262
tp1263
Rp1264
ag2
(g297
tp1265
Rp1266
aa(lp1267
g2
(S'69.0'
p1268
tp1269
Rp1270
ag2
(S'0.0'
p1271
tp1272
Rp1273
ag2
(S'1.0'
p1274
tp1275
Rp1276
ag2
(S'140.0'
p1277
tp1278
Rp1279
ag2
(S'239.0'
p1280
tp1281
Rp1282
ag2
(S'0.0'
p1283
tp1284
Rp1285
ag2
(S'0.0'
p1286
tp1287
Rp1288
ag2
(S'151.0'
p1289
tp1290
Rp1291
ag2
(S'0.0'
p1292
tp1293
Rp1294
ag2
(S'1.8'
p1295
tp1296
Rp1297
ag2
(S'1.0'
p1298
tp1299
Rp1300
ag2
(S'2.0'
p1301
tp1302
Rp1303
ag2
(S'3.0'
p1304
tp1305
Rp1306
ag2
(g42
tp1307
Rp1308
aa(lp1309
g2
(S'60.0'
p1310
tp1311
Rp1312
ag2
(S'1.0'
p1313
tp1314
Rp1315
ag2
(S'4.0'
p1316
tp1317
Rp1318
ag2
(S'117.0'
p1319
tp1320
Rp1321
ag2
(S'230.0'
p1322
tp1323
Rp1324
ag2
(S'1.0'
p1325
tp1326
Rp1327
ag2
(S'0.0'
p1328
tp1329
Rp1330
ag2
(S'160.0'
p1331
tp1332
Rp1333
ag2
(S'1.0'
p1334
tp1335
Rp1336
ag2
(S'1.4'
p1337
tp1338
Rp1339
ag2
(S'1.0'
p1340
tp1341
Rp1342
ag2
(S'2.0'
p1343
tp1344
Rp1345
ag2
(S'7.0'
p1346
tp1347
Rp1348
ag2
(g85
tp1349
Rp1350
aa(lp1351
g2
(S'64.0'
p1352
tp1353
Rp1354
ag2
(S'1.0'
p1355
tp1356
Rp1357
ag2
(S'3.0'
p1358
tp1359
Rp1360
ag2
(S'140.0'
p1361
tp1362
Rp1363
ag2
(S'335.0'
p1364
tp1365
Rp1366
ag2
(S'0.0'
p1367
tp1368
Rp1369
ag2
(S'0.0'
p1370
tp1371
Rp1372
ag2
(S'158.0'
p1373
tp1374
Rp1375
ag2
(S'0.0'
p1376
tp1377
Rp1378
ag2
(S'0.0'
p1379
tp1380
Rp1381
ag2
(S'1.0'
p1382
tp1383
Rp1384
ag2
(S'0.0'
p1385
tp1386
Rp1387
ag2
(S'3.0'
p1388
tp1389
Rp1390
ag2
(g128
tp1391
Rp1392
aa(lp1393
g2
(S'59.0'
p1394
tp1395
Rp1396
ag2
(S'1.0'
p1397
tp1398
Rp1399
ag2
(S'4.0'
p1400
tp1401
Rp1402
ag2
(S'135.0'
p1403
tp1404
Rp1405
ag2
(S'234.0'
p1406
tp1407
Rp1408
ag2
(S'0.0'
p1409
tp1410
Rp1411
ag2
(S'0.0'
p1412
tp1413
Rp1414
ag2
(S'161.0'
p1415
tp1416
Rp1417
ag2
(S'0.0'
p1418
tp1419
Rp1420
ag2
(S'0.5'
p1421
tp1422
Rp1423
ag2
(S'2.0'
p1424
tp1425
Rp1426
ag2
(S'0.0'
p1427
tp1428
Rp1429
ag2
(S'7.0'
p1430
tp1431
Rp1432
ag2
(g42
tp1433
Rp1434
aa(lp1435
g2
(S'44.0'
p1436
tp1437
Rp1438
ag2
(S'1.0'
p1439
tp1440
Rp1441
ag2
(S'3.0'
p1442
tp1443
Rp1444
ag2
(S'130.0'
p1445
tp1446
Rp1447
ag2
(S'233.0'
p1448
tp1449
Rp1450
ag2
(S'0.0'
p1451
tp1452
Rp1453
ag2
(S'0.0'
p1454
tp1455
Rp1456
ag2
(S'179.0'
p1457
tp1458
Rp1459
ag2
(S'1.0'
p1460
tp1461
Rp1462
ag2
(S'0.4'
p1463
tp1464
Rp1465
ag2
(S'1.0'
p1466
tp1467
Rp1468
ag2
(S'0.0'
p1469
tp1470
Rp1471
ag2
(S'3.0'
p1472
tp1473
Rp1474
ag2
(g42
tp1475
Rp1476
aa(lp1477
g2
(S'42.0'
p1478
tp1479
Rp1480
ag2
(S'1.0'
p1481
tp1482
Rp1483
ag2
(S'4.0'
p1484
tp1485
Rp1486
ag2
(S'140.0'
p1487
tp1488
Rp1489
ag2
(S'226.0'
p1490
tp1491
Rp1492
ag2
(S'0.0'
p1493
tp1494
Rp1495
ag2
(S'0.0'
p1496
tp1497
Rp1498
ag2
(S'178.0'
p1499
tp1500
Rp1501
ag2
(S'0.0'
p1502
tp1503
Rp1504
ag2
(S'0.0'
p1505
tp1506
Rp1507
ag2
(S'1.0'
p1508
tp1509
Rp1510
ag2
(S'0.0'
p1511
tp1512
Rp1513
ag2
(S'3.0'
p1514
tp1515
Rp1516
ag2
(g42
tp1517
Rp1518
aa(lp1519
g2
(S'43.0'
p1520
tp1521
Rp1522
ag2
(S'1.0'
p1523
tp1524
Rp1525
ag2
(S'4.0'
p1526
tp1527
Rp1528
ag2
(S'120.0'
p1529
tp1530
Rp1531
ag2
(S'177.0'
p1532
tp1533
Rp1534
ag2
(S'0.0'
p1535
tp1536
Rp1537
ag2
(S'2.0'
p1538
tp1539
Rp1540
ag2
(S'120.0'
p1541
tp1542
Rp1543
ag2
(S'1.0'
p1544
tp1545
Rp1546
ag2
(S'2.5'
p1547
tp1548
Rp1549
ag2
(S'2.0'
p1550
tp1551
Rp1552
ag2
(S'0.0'
p1553
tp1554
Rp1555
ag2
(S'7.0'
p1556
tp1557
Rp1558
ag2
(g297
tp1559
Rp1560
aa(lp1561
g2
(S'57.0'
p1562
tp1563
Rp1564
ag2
(S'1.0'
p1565
tp1566
Rp1567
ag2
(S'4.0'
p1568
tp1569
Rp1570
ag2
(S'150.0'
p1571
tp1572
Rp1573
ag2
(S'276.0'
p1574
tp1575
Rp1576
ag2
(S'0.0'
p1577
tp1578
Rp1579
ag2
(S'2.0'
p1580
tp1581
Rp1582
ag2
(S'112.0'
p1583
tp1584
Rp1585
ag2
(S'1.0'
p1586
tp1587
Rp1588
ag2
(S'0.6'
p1589
tp1590
Rp1591
ag2
(S'2.0'
p1592
tp1593
Rp1594
ag2
(S'1.0'
p1595
tp1596
Rp1597
ag2
(S'6.0'
p1598
tp1599
Rp1600
ag2
(g128
tp1601
Rp1602
aa(lp1603
g2
(S'55.0'
p1604
tp1605
Rp1606
ag2
(S'1.0'
p1607
tp1608
Rp1609
ag2
(S'4.0'
p1610
tp1611
Rp1612
ag2
(S'132.0'
p1613
tp1614
Rp1615
ag2
(S'353.0'
p1616
tp1617
Rp1618
ag2
(S'0.0'
p1619
tp1620
Rp1621
ag2
(S'0.0'
p1622
tp1623
Rp1624
ag2
(S'132.0'
p1625
tp1626
Rp1627
ag2
(S'1.0'
p1628
tp1629
Rp1630
ag2
(S'1.2'
p1631
tp1632
Rp1633
ag2
(S'2.0'
p1634
tp1635
Rp1636
ag2
(S'1.0'
p1637
tp1638
Rp1639
ag2
(S'7.0'
p1640
tp1641
Rp1642
ag2
(g297
tp1643
Rp1644
aa(lp1645
g2
(S'61.0'
p1646
tp1647
Rp1648
ag2
(S'1.0'
p1649
tp1650
Rp1651
ag2
(S'3.0'
p1652
tp1653
Rp1654
ag2
(S'150.0'
p1655
tp1656
Rp1657
ag2
(S'243.0'
p1658
tp1659
Rp1660
ag2
(S'1.0'
p1661
tp1662
Rp1663
ag2
(S'0.0'
p1664
tp1665
Rp1666
ag2
(S'137.0'
p1667
tp1668
Rp1669
ag2
(S'1.0'
p1670
tp1671
Rp1672
ag2
(S'1.0'
p1673
tp1674
Rp1675
ag2
(S'2.0'
p1676
tp1677
Rp1678
ag2
(S'0.0'
p1679
tp1680
Rp1681
ag2
(S'3.0'
p1682
tp1683
Rp1684
ag2
(g42
tp1685
Rp1686
aa(lp1687
g2
(S'65.0'
p1688
tp1689
Rp1690
ag2
(S'0.0'
p1691
tp1692
Rp1693
ag2
(S'4.0'
p1694
tp1695
Rp1696
ag2
(S'150.0'
p1697
tp1698
Rp1699
ag2
(S'225.0'
p1700
tp1701
Rp1702
ag2
(S'0.0'
p1703
tp1704
Rp1705
ag2
(S'2.0'
p1706
tp1707
Rp1708
ag2
(S'114.0'
p1709
tp1710
Rp1711
ag2
(S'0.0'
p1712
tp1713
Rp1714
ag2
(S'1.0'
p1715
tp1716
Rp1717
ag2
(S'2.0'
p1718
tp1719
Rp1720
ag2
(S'3.0'
p1721
tp1722
Rp1723
ag2
(S'7.0'
p1724
tp1725
Rp1726
ag2
(g1054
tp1727
Rp1728
aa(lp1729
g2
(S'40.0'
p1730
tp1731
Rp1732
ag2
(S'1.0'
p1733
tp1734
Rp1735
ag2
(S'1.0'
p1736
tp1737
Rp1738
ag2
(S'140.0'
p1739
tp1740
Rp1741
ag2
(S'199.0'
p1742
tp1743
Rp1744
ag2
(S'0.0'
p1745
tp1746
Rp1747
ag2
(S'0.0'
p1748
tp1749
Rp1750
ag2
(S'178.0'
p1751
tp1752
Rp1753
ag2
(S'1.0'
p1754
tp1755
Rp1756
ag2
(S'1.4'
p1757
tp1758
Rp1759
ag2
(S'1.0'
p1760
tp1761
Rp1762
ag2
(S'0.0'
p1763
tp1764
Rp1765
ag2
(S'7.0'
p1766
tp1767
Rp1768
ag2
(g42
tp1769
Rp1770
aa(lp1771
g2
(S'71.0'
p1772
tp1773
Rp1774
ag2
(S'0.0'
p1775
tp1776
Rp1777
ag2
(S'2.0'
p1778
tp1779
Rp1780
ag2
(S'160.0'
p1781
tp1782
Rp1783
ag2
(S'302.0'
p1784
tp1785
Rp1786
ag2
(S'0.0'
p1787
tp1788
Rp1789
ag2
(S'0.0'
p1790
tp1791
Rp1792
ag2
(S'162.0'
p1793
tp1794
Rp1795
ag2
(S'0.0'
p1796
tp1797
Rp1798
ag2
(S'0.4'
p1799
tp1800
Rp1801
ag2
(S'1.0'
p1802
tp1803
Rp1804
ag2
(S'2.0'
p1805
tp1806
Rp1807
ag2
(S'3.0'
p1808
tp1809
Rp1810
ag2
(g42
tp1811
Rp1812
aa(lp1813
g2
(S'59.0'
p1814
tp1815
Rp1816
ag2
(S'1.0'
p1817
tp1818
Rp1819
ag2
(S'3.0'
p1820
tp1821
Rp1822
ag2
(S'150.0'
p1823
tp1824
Rp1825
ag2
(S'212.0'
p1826
tp1827
Rp1828
ag2
(S'1.0'
p1829
tp1830
Rp1831
ag2
(S'0.0'
p1832
tp1833
Rp1834
ag2
(S'157.0'
p1835
tp1836
Rp1837
ag2
(S'0.0'
p1838
tp1839
Rp1840
ag2
(S'1.6'
p1841
tp1842
Rp1843
ag2
(S'1.0'
p1844
tp1845
Rp1846
ag2
(S'0.0'
p1847
tp1848
Rp1849
ag2
(S'3.0'
p1850
tp1851
Rp1852
ag2
(g42
tp1853
Rp1854
aa(lp1855
g2
(S'61.0'
p1856
tp1857
Rp1858
ag2
(S'0.0'
p1859
tp1860
Rp1861
ag2
(S'4.0'
p1862
tp1863
Rp1864
ag2
(S'130.0'
p1865
tp1866
Rp1867
ag2
(S'330.0'
p1868
tp1869
Rp1870
ag2
(S'0.0'
p1871
tp1872
Rp1873
ag2
(S'2.0'
p1874
tp1875
Rp1876
ag2
(S'169.0'
p1877
tp1878
Rp1879
ag2
(S'0.0'
p1880
tp1881
Rp1882
ag2
(S'0.0'
p1883
tp1884
Rp1885
ag2
(S'1.0'
p1886
tp1887
Rp1888
ag2
(S'0.0'
p1889
tp1890
Rp1891
ag2
(S'3.0'
p1892
tp1893
Rp1894
ag2
(g128
tp1895
Rp1896
aa(lp1897
g2
(S'58.0'
p1898
tp1899
Rp1900
ag2
(S'1.0'
p1901
tp1902
Rp1903
ag2
(S'3.0'
p1904
tp1905
Rp1906
ag2
(S'112.0'
p1907
tp1908
Rp1909
ag2
(S'230.0'
p1910
tp1911
Rp1912
ag2
(S'0.0'
p1913
tp1914
Rp1915
ag2
(S'2.0'
p1916
tp1917
Rp1918
ag2
(S'165.0'
p1919
tp1920
Rp1921
ag2
(S'0.0'
p1922
tp1923
Rp1924
ag2
(S'2.5'
p1925
tp1926
Rp1927
ag2
(S'2.0'
p1928
tp1929
Rp1930
ag2
(S'1.0'
p1931
tp1932
Rp1933
ag2
(S'7.0'
p1934
tp1935
Rp1936
ag2
(g1054
tp1937
Rp1938
aa(lp1939
g2
(S'51.0'
p1940
tp1941
Rp1942
ag2
(S'1.0'
p1943
tp1944
Rp1945
ag2
(S'3.0'
p1946
tp1947
Rp1948
ag2
(S'110.0'
p1949
tp1950
Rp1951
ag2
(S'175.0'
p1952
tp1953
Rp1954
ag2
(S'0.0'
p1955
tp1956
Rp1957
ag2
(S'0.0'
p1958
tp1959
Rp1960
ag2
(S'123.0'
p1961
tp1962
Rp1963
ag2
(S'0.0'
p1964
tp1965
Rp1966
ag2
(S'0.6'
p1967
tp1968
Rp1969
ag2
(S'1.0'
p1970
tp1971
Rp1972
ag2
(S'0.0'
p1973
tp1974
Rp1975
ag2
(S'3.0'
p1976
tp1977
Rp1978
ag2
(g42
tp1979
Rp1980
aa(lp1981
g2
(S'50.0'
p1982
tp1983
Rp1984
ag2
(S'1.0'
p1985
tp1986
Rp1987
ag2
(S'4.0'
p1988
tp1989
Rp1990
ag2
(S'150.0'
p1991
tp1992
Rp1993
ag2
(S'243.0'
p1994
tp1995
Rp1996
ag2
(S'0.0'
p1997
tp1998
Rp1999
ag2
(S'2.0'
p2000
tp2001
Rp2002
ag2
(S'128.0'
p2003
tp2004
Rp2005
ag2
(S'0.0'
p2006
tp2007
Rp2008
ag2
(S'2.6'
p2009
tp2010
Rp2011
ag2
(S'2.0'
p2012
tp2013
Rp2014
ag2
(S'0.0'
p2015
tp2016
Rp2017
ag2
(S'7.0'
p2018
tp2019
Rp2020
ag2
(g1054
tp2021
Rp2022
aa(lp2023
g2
(S'65.0'
p2024
tp2025
Rp2026
ag2
(S'0.0'
p2027
tp2028
Rp2029
ag2
(S'3.0'
p2030
tp2031
Rp2032
ag2
(S'140.0'
p2033
tp2034
Rp2035
ag2
(S'417.0'
p2036
tp2037
Rp2038
ag2
(S'1.0'
p2039
tp2040
Rp2041
ag2
(S'2.0'
p2042
tp2043
Rp2044
ag2
(S'157.0'
p2045
tp2046
Rp2047
ag2
(S'0.0'
p2048
tp2049
Rp2050
ag2
(S'0.8'
p2051
tp2052
Rp2053
ag2
(S'1.0'
p2054
tp2055
Rp2056
ag2
(S'1.0'
p2057
tp2058
Rp2059
ag2
(S'3.0'
p2060
tp2061
Rp2062
ag2
(g42
tp2063
Rp2064
aa(lp2065
g2
(S'53.0'
p2066
tp2067
Rp2068
ag2
(S'1.0'
p2069
tp2070
Rp2071
ag2
(S'3.0'
p2072
tp2073
Rp2074
ag2
(S'130.0'
p2075
tp2076
Rp2077
ag2
(S'197.0'
p2078
tp2079
Rp2080
ag2
(S'1.0'
p2081
tp2082
Rp2083
ag2
(S'2.0'
p2084
tp2085
Rp2086
ag2
(S'152.0'
p2087
tp2088
Rp2089
ag2
(S'0.0'
p2090
tp2091
Rp2092
ag2
(S'1.2'
p2093
tp2094
Rp2095
ag2
(S'3.0'
p2096
tp2097
Rp2098
ag2
(S'0.0'
p2099
tp2100
Rp2101
ag2
(S'3.0'
p2102
tp2103
Rp2104
ag2
(g42
tp2105
Rp2106
aa(lp2107
g2
(S'41.0'
p2108
tp2109
Rp2110
ag2
(S'0.0'
p2111
tp2112
Rp2113
ag2
(S'2.0'
p2114
tp2115
Rp2116
ag2
(S'105.0'
p2117
tp2118
Rp2119
ag2
(S'198.0'
p2120
tp2121
Rp2122
ag2
(S'0.0'
p2123
tp2124
Rp2125
ag2
(S'0.0'
p2126
tp2127
Rp2128
ag2
(S'168.0'
p2129
tp2130
Rp2131
ag2
(S'0.0'
p2132
tp2133
Rp2134
ag2
(S'0.0'
p2135
tp2136
Rp2137
ag2
(S'1.0'
p2138
tp2139
Rp2140
ag2
(S'1.0'
p2141
tp2142
Rp2143
ag2
(S'3.0'
p2144
tp2145
Rp2146
ag2
(g42
tp2147
Rp2148
aa(lp2149
g2
(S'65.0'
p2150
tp2151
Rp2152
ag2
(S'1.0'
p2153
tp2154
Rp2155
ag2
(S'4.0'
p2156
tp2157
Rp2158
ag2
(S'120.0'
p2159
tp2160
Rp2161
ag2
(S'177.0'
p2162
tp2163
Rp2164
ag2
(S'0.0'
p2165
tp2166
Rp2167
ag2
(S'0.0'
p2168
tp2169
Rp2170
ag2
(S'140.0'
p2171
tp2172
Rp2173
ag2
(S'0.0'
p2174
tp2175
Rp2176
ag2
(S'0.4'
p2177
tp2178
Rp2179
ag2
(S'1.0'
p2180
tp2181
Rp2182
ag2
(S'0.0'
p2183
tp2184
Rp2185
ag2
(S'7.0'
p2186
tp2187
Rp2188
ag2
(g42
tp2189
Rp2190
aa(lp2191
g2
(S'44.0'
p2192
tp2193
Rp2194
ag2
(S'1.0'
p2195
tp2196
Rp2197
ag2
(S'4.0'
p2198
tp2199
Rp2200
ag2
(S'112.0'
p2201
tp2202
Rp2203
ag2
(S'290.0'
p2204
tp2205
Rp2206
ag2
(S'0.0'
p2207
tp2208
Rp2209
ag2
(S'2.0'
p2210
tp2211
Rp2212
ag2
(S'153.0'
p2213
tp2214
Rp2215
ag2
(S'0.0'
p2216
tp2217
Rp2218
ag2
(S'0.0'
p2219
tp2220
Rp2221
ag2
(S'1.0'
p2222
tp2223
Rp2224
ag2
(S'1.0'
p2225
tp2226
Rp2227
ag2
(S'3.0'
p2228
tp2229
Rp2230
ag2
(g85
tp2231
Rp2232
aa(lp2233
g2
(S'44.0'
p2234
tp2235
Rp2236
ag2
(S'1.0'
p2237
tp2238
Rp2239
ag2
(S'2.0'
p2240
tp2241
Rp2242
ag2
(S'130.0'
p2243
tp2244
Rp2245
ag2
(S'219.0'
p2246
tp2247
Rp2248
ag2
(S'0.0'
p2249
tp2250
Rp2251
ag2
(S'2.0'
p2252
tp2253
Rp2254
ag2
(S'188.0'
p2255
tp2256
Rp2257
ag2
(S'0.0'
p2258
tp2259
Rp2260
ag2
(S'0.0'
p2261
tp2262
Rp2263
ag2
(S'1.0'
p2264
tp2265
Rp2266
ag2
(S'0.0'
p2267
tp2268
Rp2269
ag2
(S'3.0'
p2270
tp2271
Rp2272
ag2
(g42
tp2273
Rp2274
aa(lp2275
g2
(S'60.0'
p2276
tp2277
Rp2278
ag2
(S'1.0'
p2279
tp2280
Rp2281
ag2
(S'4.0'
p2282
tp2283
Rp2284
ag2
(S'130.0'
p2285
tp2286
Rp2287
ag2
(S'253.0'
p2288
tp2289
Rp2290
ag2
(S'0.0'
p2291
tp2292
Rp2293
ag2
(S'0.0'
p2294
tp2295
Rp2296
ag2
(S'144.0'
p2297
tp2298
Rp2299
ag2
(S'1.0'
p2300
tp2301
Rp2302
ag2
(S'1.4'
p2303
tp2304
Rp2305
ag2
(S'1.0'
p2306
tp2307
Rp2308
ag2
(S'1.0'
p2309
tp2310
Rp2311
ag2
(S'7.0'
p2312
tp2313
Rp2314
ag2
(g128
tp2315
Rp2316
aa(lp2317
g2
(S'54.0'
p2318
tp2319
Rp2320
ag2
(S'1.0'
p2321
tp2322
Rp2323
ag2
(S'4.0'
p2324
tp2325
Rp2326
ag2
(S'124.0'
p2327
tp2328
Rp2329
ag2
(S'266.0'
p2330
tp2331
Rp2332
ag2
(S'0.0'
p2333
tp2334
Rp2335
ag2
(S'2.0'
p2336
tp2337
Rp2338
ag2
(S'109.0'
p2339
tp2340
Rp2341
ag2
(S'1.0'
p2342
tp2343
Rp2344
ag2
(S'2.2'
p2345
tp2346
Rp2347
ag2
(S'2.0'
p2348
tp2349
Rp2350
ag2
(S'1.0'
p2351
tp2352
Rp2353
ag2
(S'7.0'
p2354
tp2355
Rp2356
ag2
(g128
tp2357
Rp2358
aa(lp2359
g2
(S'50.0'
p2360
tp2361
Rp2362
ag2
(S'1.0'
p2363
tp2364
Rp2365
ag2
(S'3.0'
p2366
tp2367
Rp2368
ag2
(S'140.0'
p2369
tp2370
Rp2371
ag2
(S'233.0'
p2372
tp2373
Rp2374
ag2
(S'0.0'
p2375
tp2376
Rp2377
ag2
(S'0.0'
p2378
tp2379
Rp2380
ag2
(S'163.0'
p2381
tp2382
Rp2383
ag2
(S'0.0'
p2384
tp2385
Rp2386
ag2
(S'0.6'
p2387
tp2388
Rp2389
ag2
(S'2.0'
p2390
tp2391
Rp2392
ag2
(S'1.0'
p2393
tp2394
Rp2395
ag2
(S'7.0'
p2396
tp2397
Rp2398
ag2
(g128
tp2399
Rp2400
aa(lp2401
g2
(S'41.0'
p2402
tp2403
Rp2404
ag2
(S'1.0'
p2405
tp2406
Rp2407
ag2
(S'4.0'
p2408
tp2409
Rp2410
ag2
(S'110.0'
p2411
tp2412
Rp2413
ag2
(S'172.0'
p2414
tp2415
Rp2416
ag2
(S'0.0'
p2417
tp2418
Rp2419
ag2
(S'2.0'
p2420
tp2421
Rp2422
ag2
(S'158.0'
p2423
tp2424
Rp2425
ag2
(S'0.0'
p2426
tp2427
Rp2428
ag2
(S'0.0'
p2429
tp2430
Rp2431
ag2
(S'1.0'
p2432
tp2433
Rp2434
ag2
(S'0.0'
p2435
tp2436
Rp2437
ag2
(S'7.0'
p2438
tp2439
Rp2440
ag2
(g128
tp2441
Rp2442
aa(lp2443
g2
(S'54.0'
p2444
tp2445
Rp2446
ag2
(S'1.0'
p2447
tp2448
Rp2449
ag2
(S'3.0'
p2450
tp2451
Rp2452
ag2
(S'125.0'
p2453
tp2454
Rp2455
ag2
(S'273.0'
p2456
tp2457
Rp2458
ag2
(S'0.0'
p2459
tp2460
Rp2461
ag2
(S'2.0'
p2462
tp2463
Rp2464
ag2
(S'152.0'
p2465
tp2466
Rp2467
ag2
(S'0.0'
p2468
tp2469
Rp2470
ag2
(S'0.5'
p2471
tp2472
Rp2473
ag2
(S'3.0'
p2474
tp2475
Rp2476
ag2
(S'1.0'
p2477
tp2478
Rp2479
ag2
(S'3.0'
p2480
tp2481
Rp2482
ag2
(g42
tp2483
Rp2484
aa(lp2485
g2
(S'51.0'
p2486
tp2487
Rp2488
ag2
(S'1.0'
p2489
tp2490
Rp2491
ag2
(S'1.0'
p2492
tp2493
Rp2494
ag2
(S'125.0'
p2495
tp2496
Rp2497
ag2
(S'213.0'
p2498
tp2499
Rp2500
ag2
(S'0.0'
p2501
tp2502
Rp2503
ag2
(S'2.0'
p2504
tp2505
Rp2506
ag2
(S'125.0'
p2507
tp2508
Rp2509
ag2
(S'1.0'
p2510
tp2511
Rp2512
ag2
(S'1.4'
p2513
tp2514
Rp2515
ag2
(S'1.0'
p2516
tp2517
Rp2518
ag2
(S'1.0'
p2519
tp2520
Rp2521
ag2
(S'3.0'
p2522
tp2523
Rp2524
ag2
(g42
tp2525
Rp2526
aa(lp2527
g2
(S'51.0'
p2528
tp2529
Rp2530
ag2
(S'0.0'
p2531
tp2532
Rp2533
ag2
(S'4.0'
p2534
tp2535
Rp2536
ag2
(S'130.0'
p2537
tp2538
Rp2539
ag2
(S'305.0'
p2540
tp2541
Rp2542
ag2
(S'0.0'
p2543
tp2544
Rp2545
ag2
(S'0.0'
p2546
tp2547
Rp2548
ag2
(S'142.0'
p2549
tp2550
Rp2551
ag2
(S'1.0'
p2552
tp2553
Rp2554
ag2
(S'1.2'
p2555
tp2556
Rp2557
ag2
(S'2.0'
p2558
tp2559
Rp2560
ag2
(S'0.0'
p2561
tp2562
Rp2563
ag2
(S'7.0'
p2564
tp2565
Rp2566
ag2
(g85
tp2567
Rp2568
aa(lp2569
g2
(S'46.0'
p2570
tp2571
Rp2572
ag2
(S'0.0'
p2573
tp2574
Rp2575
ag2
(S'3.0'
p2576
tp2577
Rp2578
ag2
(S'142.0'
p2579
tp2580
Rp2581
ag2
(S'177.0'
p2582
tp2583
Rp2584
ag2
(S'0.0'
p2585
tp2586
Rp2587
ag2
(S'2.0'
p2588
tp2589
Rp2590
ag2
(S'160.0'
p2591
tp2592
Rp2593
ag2
(S'1.0'
p2594
tp2595
Rp2596
ag2
(S'1.4'
p2597
tp2598
Rp2599
ag2
(S'3.0'
p2600
tp2601
Rp2602
ag2
(S'0.0'
p2603
tp2604
Rp2605
ag2
(S'3.0'
p2606
tp2607
Rp2608
ag2
(g42
tp2609
Rp2610
aa(lp2611
g2
(S'58.0'
p2612
tp2613
Rp2614
ag2
(S'1.0'
p2615
tp2616
Rp2617
ag2
(S'4.0'
p2618
tp2619
Rp2620
ag2
(S'128.0'
p2621
tp2622
Rp2623
ag2
(S'216.0'
p2624
tp2625
Rp2626
ag2
(S'0.0'
p2627
tp2628
Rp2629
ag2
(S'2.0'
p2630
tp2631
Rp2632
ag2
(S'131.0'
p2633
tp2634
Rp2635
ag2
(S'1.0'
p2636
tp2637
Rp2638
ag2
(S'2.2'
p2639
tp2640
Rp2641
ag2
(S'2.0'
p2642
tp2643
Rp2644
ag2
(S'3.0'
p2645
tp2646
Rp2647
ag2
(S'7.0'
p2648
tp2649
Rp2650
ag2
(g128
tp2651
Rp2652
aa(lp2653
g2
(S'54.0'
p2654
tp2655
Rp2656
ag2
(S'0.0'
p2657
tp2658
Rp2659
ag2
(S'3.0'
p2660
tp2661
Rp2662
ag2
(S'135.0'
p2663
tp2664
Rp2665
ag2
(S'304.0'
p2666
tp2667
Rp2668
ag2
(S'1.0'
p2669
tp2670
Rp2671
ag2
(S'0.0'
p2672
tp2673
Rp2674
ag2
(S'170.0'
p2675
tp2676
Rp2677
ag2
(S'0.0'
p2678
tp2679
Rp2680
ag2
(S'0.0'
p2681
tp2682
Rp2683
ag2
(S'1.0'
p2684
tp2685
Rp2686
ag2
(S'0.0'
p2687
tp2688
Rp2689
ag2
(S'3.0'
p2690
tp2691
Rp2692
ag2
(g42
tp2693
Rp2694
aa(lp2695
g2
(S'54.0'
p2696
tp2697
Rp2698
ag2
(S'1.0'
p2699
tp2700
Rp2701
ag2
(S'4.0'
p2702
tp2703
Rp2704
ag2
(S'120.0'
p2705
tp2706
Rp2707
ag2
(S'188.0'
p2708
tp2709
Rp2710
ag2
(S'0.0'
p2711
tp2712
Rp2713
ag2
(S'0.0'
p2714
tp2715
Rp2716
ag2
(S'113.0'
p2717
tp2718
Rp2719
ag2
(S'0.0'
p2720
tp2721
Rp2722
ag2
(S'1.4'
p2723
tp2724
Rp2725
ag2
(S'2.0'
p2726
tp2727
Rp2728
ag2
(S'1.0'
p2729
tp2730
Rp2731
ag2
(S'7.0'
p2732
tp2733
Rp2734
ag2
(g85
tp2735
Rp2736
aa(lp2737
g2
(S'60.0'
p2738
tp2739
Rp2740
ag2
(S'1.0'
p2741
tp2742
Rp2743
ag2
(S'4.0'
p2744
tp2745
Rp2746
ag2
(S'145.0'
p2747
tp2748
Rp2749
ag2
(S'282.0'
p2750
tp2751
Rp2752
ag2
(S'0.0'
p2753
tp2754
Rp2755
ag2
(S'2.0'
p2756
tp2757
Rp2758
ag2
(S'142.0'
p2759
tp2760
Rp2761
ag2
(S'1.0'
p2762
tp2763
Rp2764
ag2
(S'2.8'
p2765
tp2766
Rp2767
ag2
(S'2.0'
p2768
tp2769
Rp2770
ag2
(S'2.0'
p2771
tp2772
Rp2773
ag2
(S'7.0'
p2774
tp2775
Rp2776
ag2
(g85
tp2777
Rp2778
aa(lp2779
g2
(S'60.0'
p2780
tp2781
Rp2782
ag2
(S'1.0'
p2783
tp2784
Rp2785
ag2
(S'3.0'
p2786
tp2787
Rp2788
ag2
(S'140.0'
p2789
tp2790
Rp2791
ag2
(S'185.0'
p2792
tp2793
Rp2794
ag2
(S'0.0'
p2795
tp2796
Rp2797
ag2
(S'2.0'
p2798
tp2799
Rp2800
ag2
(S'155.0'
p2801
tp2802
Rp2803
ag2
(S'0.0'
p2804
tp2805
Rp2806
ag2
(S'3.0'
p2807
tp2808
Rp2809
ag2
(S'2.0'
p2810
tp2811
Rp2812
ag2
(S'0.0'
p2813
tp2814
Rp2815
ag2
(S'3.0'
p2816
tp2817
Rp2818
ag2
(g128
tp2819
Rp2820
aa(lp2821
g2
(S'54.0'
p2822
tp2823
Rp2824
ag2
(S'1.0'
p2825
tp2826
Rp2827
ag2
(S'3.0'
p2828
tp2829
Rp2830
ag2
(S'150.0'
p2831
tp2832
Rp2833
ag2
(S'232.0'
p2834
tp2835
Rp2836
ag2
(S'0.0'
p2837
tp2838
Rp2839
ag2
(S'2.0'
p2840
tp2841
Rp2842
ag2
(S'165.0'
p2843
tp2844
Rp2845
ag2
(S'0.0'
p2846
tp2847
Rp2848
ag2
(S'1.6'
p2849
tp2850
Rp2851
ag2
(S'1.0'
p2852
tp2853
Rp2854
ag2
(S'0.0'
p2855
tp2856
Rp2857
ag2
(S'7.0'
p2858
tp2859
Rp2860
ag2
(g42
tp2861
Rp2862
aa(lp2863
g2
(S'59.0'
p2864
tp2865
Rp2866
ag2
(S'1.0'
p2867
tp2868
Rp2869
ag2
(S'4.0'
p2870
tp2871
Rp2872
ag2
(S'170.0'
p2873
tp2874
Rp2875
ag2
(S'326.0'
p2876
tp2877
Rp2878
ag2
(S'0.0'
p2879
tp2880
Rp2881
ag2
(S'2.0'
p2882
tp2883
Rp2884
ag2
(S'140.0'
p2885
tp2886
Rp2887
ag2
(S'1.0'
p2888
tp2889
Rp2890
ag2
(S'3.4'
p2891
tp2892
Rp2893
ag2
(S'3.0'
p2894
tp2895
Rp2896
ag2
(S'0.0'
p2897
tp2898
Rp2899
ag2
(S'7.0'
p2900
tp2901
Rp2902
ag2
(g85
tp2903
Rp2904
aa(lp2905
g2
(S'46.0'
p2906
tp2907
Rp2908
ag2
(S'1.0'
p2909
tp2910
Rp2911
ag2
(S'3.0'
p2912
tp2913
Rp2914
ag2
(S'150.0'
p2915
tp2916
Rp2917
ag2
(S'231.0'
p2918
tp2919
Rp2920
ag2
(S'0.0'
p2921
tp2922
Rp2923
ag2
(S'0.0'
p2924
tp2925
Rp2926
ag2
(S'147.0'
p2927
tp2928
Rp2929
ag2
(S'0.0'
p2930
tp2931
Rp2932
ag2
(S'3.6'
p2933
tp2934
Rp2935
ag2
(S'2.0'
p2936
tp2937
Rp2938
ag2
(S'0.0'
p2939
tp2940
Rp2941
ag2
(S'3.0'
p2942
tp2943
Rp2944
ag2
(g128
tp2945
Rp2946
aa(lp2947
g2
(S'65.0'
p2948
tp2949
Rp2950
ag2
(S'0.0'
p2951
tp2952
Rp2953
ag2
(S'3.0'
p2954
tp2955
Rp2956
ag2
(S'155.0'
p2957
tp2958
Rp2959
ag2
(S'269.0'
p2960
tp2961
Rp2962
ag2
(S'0.0'
p2963
tp2964
Rp2965
ag2
(S'0.0'
p2966
tp2967
Rp2968
ag2
(S'148.0'
p2969
tp2970
Rp2971
ag2
(S'0.0'
p2972
tp2973
Rp2974
ag2
(S'0.8'
p2975
tp2976
Rp2977
ag2
(S'1.0'
p2978
tp2979
Rp2980
ag2
(S'0.0'
p2981
tp2982
Rp2983
ag2
(S'3.0'
p2984
tp2985
Rp2986
ag2
(g42
tp2987
Rp2988
aa(lp2989
g2
(S'67.0'
p2990
tp2991
Rp2992
ag2
(S'1.0'
p2993
tp2994
Rp2995
ag2
(S'4.0'
p2996
tp2997
Rp2998
ag2
(S'125.0'
p2999
tp3000
Rp3001
ag2
(S'254.0'
p3002
tp3003
Rp3004
ag2
(S'1.0'
p3005
tp3006
Rp3007
ag2
(S'0.0'
p3008
tp3009
Rp3010
ag2
(S'163.0'
p3011
tp3012
Rp3013
ag2
(S'0.0'
p3014
tp3015
Rp3016
ag2
(S'0.2'
p3017
tp3018
Rp3019
ag2
(S'2.0'
p3020
tp3021
Rp3022
ag2
(S'2.0'
p3023
tp3024
Rp3025
ag2
(S'7.0'
p3026
tp3027
Rp3028
ag2
(g297
tp3029
Rp3030
aa(lp3031
g2
(S'62.0'
p3032
tp3033
Rp3034
ag2
(S'1.0'
p3035
tp3036
Rp3037
ag2
(S'4.0'
p3038
tp3039
Rp3040
ag2
(S'120.0'
p3041
tp3042
Rp3043
ag2
(S'267.0'
p3044
tp3045
Rp3046
ag2
(S'0.0'
p3047
tp3048
Rp3049
ag2
(S'0.0'
p3050
tp3051
Rp3052
ag2
(S'99.0'
p3053
tp3054
Rp3055
ag2
(S'1.0'
p3056
tp3057
Rp3058
ag2
(S'1.8'
p3059
tp3060
Rp3061
ag2
(S'2.0'
p3062
tp3063
Rp3064
ag2
(S'2.0'
p3065
tp3066
Rp3067
ag2
(S'7.0'
p3068
tp3069
Rp3070
ag2
(g128
tp3071
Rp3072
aa(lp3073
g2
(S'65.0'
p3074
tp3075
Rp3076
ag2
(S'1.0'
p3077
tp3078
Rp3079
ag2
(S'4.0'
p3080
tp3081
Rp3082
ag2
(S'110.0'
p3083
tp3084
Rp3085
ag2
(S'248.0'
p3086
tp3087
Rp3088
ag2
(S'0.0'
p3089
tp3090
Rp3091
ag2
(S'2.0'
p3092
tp3093
Rp3094
ag2
(S'158.0'
p3095
tp3096
Rp3097
ag2
(S'0.0'
p3098
tp3099
Rp3100
ag2
(S'0.6'
p3101
tp3102
Rp3103
ag2
(S'1.0'
p3104
tp3105
Rp3106
ag2
(S'2.0'
p3107
tp3108
Rp3109
ag2
(S'6.0'
p3110
tp3111
Rp3112
ag2
(g128
tp3113
Rp3114
aa(lp3115
g2
(S'44.0'
p3116
tp3117
Rp3118
ag2
(S'1.0'
p3119
tp3120
Rp3121
ag2
(S'4.0'
p3122
tp3123
Rp3124
ag2
(S'110.0'
p3125
tp3126
Rp3127
ag2
(S'197.0'
p3128
tp3129
Rp3130
ag2
(S'0.0'
p3131
tp3132
Rp3133
ag2
(S'2.0'
p3134
tp3135
Rp3136
ag2
(S'177.0'
p3137
tp3138
Rp3139
ag2
(S'0.0'
p3140
tp3141
Rp3142
ag2
(S'0.0'
p3143
tp3144
Rp3145
ag2
(S'1.0'
p3146
tp3147
Rp3148
ag2
(S'1.0'
p3149
tp3150
Rp3151
ag2
(S'3.0'
p3152
tp3153
Rp3154
ag2
(g128
tp3155
Rp3156
aa(lp3157
g2
(S'65.0'
p3158
tp3159
Rp3160
ag2
(S'0.0'
p3161
tp3162
Rp3163
ag2
(S'3.0'
p3164
tp3165
Rp3166
ag2
(S'160.0'
p3167
tp3168
Rp3169
ag2
(S'360.0'
p3170
tp3171
Rp3172
ag2
(S'0.0'
p3173
tp3174
Rp3175
ag2
(S'2.0'
p3176
tp3177
Rp3178
ag2
(S'151.0'
p3179
tp3180
Rp3181
ag2
(S'0.0'
p3182
tp3183
Rp3184
ag2
(S'0.8'
p3185
tp3186
Rp3187
ag2
(S'1.0'
p3188
tp3189
Rp3190
ag2
(S'0.0'
p3191
tp3192
Rp3193
ag2
(S'3.0'
p3194
tp3195
Rp3196
ag2
(g42
tp3197
Rp3198
aa(lp3199
g2
(S'60.0'
p3200
tp3201
Rp3202
ag2
(S'1.0'
p3203
tp3204
Rp3205
ag2
(S'4.0'
p3206
tp3207
Rp3208
ag2
(S'125.0'
p3209
tp3210
Rp3211
ag2
(S'258.0'
p3212
tp3213
Rp3214
ag2
(S'0.0'
p3215
tp3216
Rp3217
ag2
(S'2.0'
p3218
tp3219
Rp3220
ag2
(S'141.0'
p3221
tp3222
Rp3223
ag2
(S'1.0'
p3224
tp3225
Rp3226
ag2
(S'2.8'
p3227
tp3228
Rp3229
ag2
(S'2.0'
p3230
tp3231
Rp3232
ag2
(S'1.0'
p3233
tp3234
Rp3235
ag2
(S'7.0'
p3236
tp3237
Rp3238
ag2
(g128
tp3239
Rp3240
aa(lp3241
g2
(S'51.0'
p3242
tp3243
Rp3244
ag2
(S'0.0'
p3245
tp3246
Rp3247
ag2
(S'3.0'
p3248
tp3249
Rp3250
ag2
(S'140.0'
p3251
tp3252
Rp3253
ag2
(S'308.0'
p3254
tp3255
Rp3256
ag2
(S'0.0'
p3257
tp3258
Rp3259
ag2
(S'2.0'
p3260
tp3261
Rp3262
ag2
(S'142.0'
p3263
tp3264
Rp3265
ag2
(S'0.0'
p3266
tp3267
Rp3268
ag2
(S'1.5'
p3269
tp3270
Rp3271
ag2
(S'1.0'
p3272
tp3273
Rp3274
ag2
(S'1.0'
p3275
tp3276
Rp3277
ag2
(S'3.0'
p3278
tp3279
Rp3280
ag2
(g42
tp3281
Rp3282
aa(lp3283
g2
(S'48.0'
p3284
tp3285
Rp3286
ag2
(S'1.0'
p3287
tp3288
Rp3289
ag2
(S'2.0'
p3290
tp3291
Rp3292
ag2
(S'130.0'
p3293
tp3294
Rp3295
ag2
(S'245.0'
p3296
tp3297
Rp3298
ag2
(S'0.0'
p3299
tp3300
Rp3301
ag2
(S'2.0'
p3302
tp3303
Rp3304
ag2
(S'180.0'
p3305
tp3306
Rp3307
ag2
(S'0.0'
p3308
tp3309
Rp3310
ag2
(S'0.2'
p3311
tp3312
Rp3313
ag2
(S'2.0'
p3314
tp3315
Rp3316
ag2
(S'0.0'
p3317
tp3318
Rp3319
ag2
(S'3.0'
p3320
tp3321
Rp3322
ag2
(g42
tp3323
Rp3324
aa(lp3325
g2
(S'58.0'
p3326
tp3327
Rp3328
ag2
(S'1.0'
p3329
tp3330
Rp3331
ag2
(S'4.0'
p3332
tp3333
Rp3334
ag2
(S'150.0'
p3335
tp3336
Rp3337
ag2
(S'270.0'
p3338
tp3339
Rp3340
ag2
(S'0.0'
p3341
tp3342
Rp3343
ag2
(S'2.0'
p3344
tp3345
Rp3346
ag2
(S'111.0'
p3347
tp3348
Rp3349
ag2
(S'1.0'
p3350
tp3351
Rp3352
ag2
(S'0.8'
p3353
tp3354
Rp3355
ag2
(S'1.0'
p3356
tp3357
Rp3358
ag2
(S'0.0'
p3359
tp3360
Rp3361
ag2
(S'7.0'
p3362
tp3363
Rp3364
ag2
(g297
tp3365
Rp3366
aa(lp3367
g2
(S'45.0'
p3368
tp3369
Rp3370
ag2
(S'1.0'
p3371
tp3372
Rp3373
ag2
(S'4.0'
p3374
tp3375
Rp3376
ag2
(S'104.0'
p3377
tp3378
Rp3379
ag2
(S'208.0'
p3380
tp3381
Rp3382
ag2
(S'0.0'
p3383
tp3384
Rp3385
ag2
(S'2.0'
p3386
tp3387
Rp3388
ag2
(S'148.0'
p3389
tp3390
Rp3391
ag2
(S'1.0'
p3392
tp3393
Rp3394
ag2
(S'3.0'
p3395
tp3396
Rp3397
ag2
(S'2.0'
p3398
tp3399
Rp3400
ag2
(S'0.0'
p3401
tp3402
Rp3403
ag2
(S'3.0'
p3404
tp3405
Rp3406
ag2
(g42
tp3407
Rp3408
aa(lp3409
g2
(S'53.0'
p3410
tp3411
Rp3412
ag2
(S'0.0'
p3413
tp3414
Rp3415
ag2
(S'4.0'
p3416
tp3417
Rp3418
ag2
(S'130.0'
p3419
tp3420
Rp3421
ag2
(S'264.0'
p3422
tp3423
Rp3424
ag2
(S'0.0'
p3425
tp3426
Rp3427
ag2
(S'2.0'
p3428
tp3429
Rp3430
ag2
(S'143.0'
p3431
tp3432
Rp3433
ag2
(S'0.0'
p3434
tp3435
Rp3436
ag2
(S'0.4'
p3437
tp3438
Rp3439
ag2
(S'2.0'
p3440
tp3441
Rp3442
ag2
(S'0.0'
p3443
tp3444
Rp3445
ag2
(S'3.0'
p3446
tp3447
Rp3448
ag2
(g42
tp3449
Rp3450
aa(lp3451
g2
(S'39.0'
p3452
tp3453
Rp3454
ag2
(S'1.0'
p3455
tp3456
Rp3457
ag2
(S'3.0'
p3458
tp3459
Rp3460
ag2
(S'140.0'
p3461
tp3462
Rp3463
ag2
(S'321.0'
p3464
tp3465
Rp3466
ag2
(S'0.0'
p3467
tp3468
Rp3469
ag2
(S'2.0'
p3470
tp3471
Rp3472
ag2
(S'182.0'
p3473
tp3474
Rp3475
ag2
(S'0.0'
p3476
tp3477
Rp3478
ag2
(S'0.0'
p3479
tp3480
Rp3481
ag2
(S'1.0'
p3482
tp3483
Rp3484
ag2
(S'0.0'
p3485
tp3486
Rp3487
ag2
(S'3.0'
p3488
tp3489
Rp3490
ag2
(g42
tp3491
Rp3492
aa(lp3493
g2
(S'68.0'
p3494
tp3495
Rp3496
ag2
(S'1.0'
p3497
tp3498
Rp3499
ag2
(S'3.0'
p3500
tp3501
Rp3502
ag2
(S'180.0'
p3503
tp3504
Rp3505
ag2
(S'274.0'
p3506
tp3507
Rp3508
ag2
(S'1.0'
p3509
tp3510
Rp3511
ag2
(S'2.0'
p3512
tp3513
Rp3514
ag2
(S'150.0'
p3515
tp3516
Rp3517
ag2
(S'1.0'
p3518
tp3519
Rp3520
ag2
(S'1.6'
p3521
tp3522
Rp3523
ag2
(S'2.0'
p3524
tp3525
Rp3526
ag2
(S'0.0'
p3527
tp3528
Rp3529
ag2
(S'7.0'
p3530
tp3531
Rp3532
ag2
(g297
tp3533
Rp3534
aa(lp3535
g2
(S'52.0'
p3536
tp3537
Rp3538
ag2
(S'1.0'
p3539
tp3540
Rp3541
ag2
(S'2.0'
p3542
tp3543
Rp3544
ag2
(S'120.0'
p3545
tp3546
Rp3547
ag2
(S'325.0'
p3548
tp3549
Rp3550
ag2
(S'0.0'
p3551
tp3552
Rp3553
ag2
(S'0.0'
p3554
tp3555
Rp3556
ag2
(S'172.0'
p3557
tp3558
Rp3559
ag2
(S'0.0'
p3560
tp3561
Rp3562
ag2
(S'0.2'
p3563
tp3564
Rp3565
ag2
(S'1.0'
p3566
tp3567
Rp3568
ag2
(S'0.0'
p3569
tp3570
Rp3571
ag2
(S'3.0'
p3572
tp3573
Rp3574
ag2
(g42
tp3575
Rp3576
aa(lp3577
g2
(S'44.0'
p3578
tp3579
Rp3580
ag2
(S'1.0'
p3581
tp3582
Rp3583
ag2
(S'3.0'
p3584
tp3585
Rp3586
ag2
(S'140.0'
p3587
tp3588
Rp3589
ag2
(S'235.0'
p3590
tp3591
Rp3592
ag2
(S'0.0'
p3593
tp3594
Rp3595
ag2
(S'2.0'
p3596
tp3597
Rp3598
ag2
(S'180.0'
p3599
tp3600
Rp3601
ag2
(S'0.0'
p3602
tp3603
Rp3604
ag2
(S'0.0'
p3605
tp3606
Rp3607
ag2
(S'1.0'
p3608
tp3609
Rp3610
ag2
(S'0.0'
p3611
tp3612
Rp3613
ag2
(S'3.0'
p3614
tp3615
Rp3616
ag2
(g42
tp3617
Rp3618
aa(lp3619
g2
(S'47.0'
p3620
tp3621
Rp3622
ag2
(S'1.0'
p3623
tp3624
Rp3625
ag2
(S'3.0'
p3626
tp3627
Rp3628
ag2
(S'138.0'
p3629
tp3630
Rp3631
ag2
(S'257.0'
p3632
tp3633
Rp3634
ag2
(S'0.0'
p3635
tp3636
Rp3637
ag2
(S'2.0'
p3638
tp3639
Rp3640
ag2
(S'156.0'
p3641
tp3642
Rp3643
ag2
(S'0.0'
p3644
tp3645
Rp3646
ag2
(S'0.0'
p3647
tp3648
Rp3649
ag2
(S'1.0'
p3650
tp3651
Rp3652
ag2
(S'0.0'
p3653
tp3654
Rp3655
ag2
(S'3.0'
p3656
tp3657
Rp3658
ag2
(g42
tp3659
Rp3660
aa(lp3661
g2
(S'53.0'
p3662
tp3663
Rp3664
ag2
(S'0.0'
p3665
tp3666
Rp3667
ag2
(S'3.0'
p3668
tp3669
Rp3670
ag2
(S'128.0'
p3671
tp3672
Rp3673
ag2
(S'216.0'
p3674
tp3675
Rp3676
ag2
(S'0.0'
p3677
tp3678
Rp3679
ag2
(S'2.0'
p3680
tp3681
Rp3682
ag2
(S'115.0'
p3683
tp3684
Rp3685
ag2
(S'0.0'
p3686
tp3687
Rp3688
ag2
(S'0.0'
p3689
tp3690
Rp3691
ag2
(S'1.0'
p3692
tp3693
Rp3694
ag2
(S'0.0'
p3695
tp3696
Rp3697
ag2
(S'0.0'
p3698
tp3699
Rp3700
ag2
(g42
tp3701
Rp3702
aa(lp3703
g2
(S'53.0'
p3704
tp3705
Rp3706
ag2
(S'0.0'
p3707
tp3708
Rp3709
ag2
(S'4.0'
p3710
tp3711
Rp3712
ag2
(S'138.0'
p3713
tp3714
Rp3715
ag2
(S'234.0'
p3716
tp3717
Rp3718
ag2
(S'0.0'
p3719
tp3720
Rp3721
ag2
(S'2.0'
p3722
tp3723
Rp3724
ag2
(S'160.0'
p3725
tp3726
Rp3727
ag2
(S'0.0'
p3728
tp3729
Rp3730
ag2
(S'0.0'
p3731
tp3732
Rp3733
ag2
(S'1.0'
p3734
tp3735
Rp3736
ag2
(S'0.0'
p3737
tp3738
Rp3739
ag2
(S'3.0'
p3740
tp3741
Rp3742
ag2
(g42
tp3743
Rp3744
aa(lp3745
g2
(S'51.0'
p3746
tp3747
Rp3748
ag2
(S'0.0'
p3749
tp3750
Rp3751
ag2
(S'3.0'
p3752
tp3753
Rp3754
ag2
(S'130.0'
p3755
tp3756
Rp3757
ag2
(S'256.0'
p3758
tp3759
Rp3760
ag2
(S'0.0'
p3761
tp3762
Rp3763
ag2
(S'2.0'
p3764
tp3765
Rp3766
ag2
(S'149.0'
p3767
tp3768
Rp3769
ag2
(S'0.0'
p3770
tp3771
Rp3772
ag2
(S'0.5'
p3773
tp3774
Rp3775
ag2
(S'1.0'
p3776
tp3777
Rp3778
ag2
(S'0.0'
p3779
tp3780
Rp3781
ag2
(S'3.0'
p3782
tp3783
Rp3784
ag2
(g42
tp3785
Rp3786
aa(lp3787
g2
(S'66.0'
p3788
tp3789
Rp3790
ag2
(S'1.0'
p3791
tp3792
Rp3793
ag2
(S'4.0'
p3794
tp3795
Rp3796
ag2
(S'120.0'
p3797
tp3798
Rp3799
ag2
(S'302.0'
p3800
tp3801
Rp3802
ag2
(S'0.0'
p3803
tp3804
Rp3805
ag2
(S'2.0'
p3806
tp3807
Rp3808
ag2
(S'151.0'
p3809
tp3810
Rp3811
ag2
(S'0.0'
p3812
tp3813
Rp3814
ag2
(S'0.4'
p3815
tp3816
Rp3817
ag2
(S'2.0'
p3818
tp3819
Rp3820
ag2
(S'0.0'
p3821
tp3822
Rp3823
ag2
(S'3.0'
p3824
tp3825
Rp3826
ag2
(g42
tp3827
Rp3828
aa(lp3829
g2
(S'62.0'
p3830
tp3831
Rp3832
ag2
(S'0.0'
p3833
tp3834
Rp3835
ag2
(S'4.0'
p3836
tp3837
Rp3838
ag2
(S'160.0'
p3839
tp3840
Rp3841
ag2
(S'164.0'
p3842
tp3843
Rp3844
ag2
(S'0.0'
p3845
tp3846
Rp3847
ag2
(S'2.0'
p3848
tp3849
Rp3850
ag2
(S'145.0'
p3851
tp3852
Rp3853
ag2
(S'0.0'
p3854
tp3855
Rp3856
ag2
(S'6.2'
p3857
tp3858
Rp3859
ag2
(S'3.0'
p3860
tp3861
Rp3862
ag2
(S'3.0'
p3863
tp3864
Rp3865
ag2
(S'7.0'
p3866
tp3867
Rp3868
ag2
(g297
tp3869
Rp3870
aa(lp3871
g2
(S'62.0'
p3872
tp3873
Rp3874
ag2
(S'1.0'
p3875
tp3876
Rp3877
ag2
(S'3.0'
p3878
tp3879
Rp3880
ag2
(S'130.0'
p3881
tp3882
Rp3883
ag2
(S'231.0'
p3884
tp3885
Rp3886
ag2
(S'0.0'
p3887
tp3888
Rp3889
ag2
(S'0.0'
p3890
tp3891
Rp3892
ag2
(S'146.0'
p3893
tp3894
Rp3895
ag2
(S'0.0'
p3896
tp3897
Rp3898
ag2
(S'1.8'
p3899
tp3900
Rp3901
ag2
(S'2.0'
p3902
tp3903
Rp3904
ag2
(S'3.0'
p3905
tp3906
Rp3907
ag2
(S'7.0'
p3908
tp3909
Rp3910
ag2
(g42
tp3911
Rp3912
aa(lp3913
g2
(S'44.0'
p3914
tp3915
Rp3916
ag2
(S'0.0'
p3917
tp3918
Rp3919
ag2
(S'3.0'
p3920
tp3921
Rp3922
ag2
(S'108.0'
p3923
tp3924
Rp3925
ag2
(S'141.0'
p3926
tp3927
Rp3928
ag2
(S'0.0'
p3929
tp3930
Rp3931
ag2
(S'0.0'
p3932
tp3933
Rp3934
ag2
(S'175.0'
p3935
tp3936
Rp3937
ag2
(S'0.0'
p3938
tp3939
Rp3940
ag2
(S'0.6'
p3941
tp3942
Rp3943
ag2
(S'2.0'
p3944
tp3945
Rp3946
ag2
(S'0.0'
p3947
tp3948
Rp3949
ag2
(S'3.0'
p3950
tp3951
Rp3952
ag2
(g42
tp3953
Rp3954
aa(lp3955
g2
(S'63.0'
p3956
tp3957
Rp3958
ag2
(S'0.0'
p3959
tp3960
Rp3961
ag2
(S'3.0'
p3962
tp3963
Rp3964
ag2
(S'135.0'
p3965
tp3966
Rp3967
ag2
(S'252.0'
p3968
tp3969
Rp3970
ag2
(S'0.0'
p3971
tp3972
Rp3973
ag2
(S'2.0'
p3974
tp3975
Rp3976
ag2
(S'172.0'
p3977
tp3978
Rp3979
ag2
(S'0.0'
p3980
tp3981
Rp3982
ag2
(S'0.0'
p3983
tp3984
Rp3985
ag2
(S'1.0'
p3986
tp3987
Rp3988
ag2
(S'0.0'
p3989
tp3990
Rp3991
ag2
(S'3.0'
p3992
tp3993
Rp3994
ag2
(g42
tp3995
Rp3996
aa(lp3997
g2
(S'52.0'
p3998
tp3999
Rp4000
ag2
(S'1.0'
p4001
tp4002
Rp4003
ag2
(S'4.0'
p4004
tp4005
Rp4006
ag2
(S'128.0'
p4007
tp4008
Rp4009
ag2
(S'255.0'
p4010
tp4011
Rp4012
ag2
(S'0.0'
p4013
tp4014
Rp4015
ag2
(S'0.0'
p4016
tp4017
Rp4018
ag2
(S'161.0'
p4019
tp4020
Rp4021
ag2
(S'1.0'
p4022
tp4023
Rp4024
ag2
(S'0.0'
p4025
tp4026
Rp4027
ag2
(S'1.0'
p4028
tp4029
Rp4030
ag2
(S'1.0'
p4031
tp4032
Rp4033
ag2
(S'7.0'
p4034
tp4035
Rp4036
ag2
(g128
tp4037
Rp4038
aa(lp4039
g2
(S'59.0'
p4040
tp4041
Rp4042
ag2
(S'1.0'
p4043
tp4044
Rp4045
ag2
(S'4.0'
p4046
tp4047
Rp4048
ag2
(S'110.0'
p4049
tp4050
Rp4051
ag2
(S'239.0'
p4052
tp4053
Rp4054
ag2
(S'0.0'
p4055
tp4056
Rp4057
ag2
(S'2.0'
p4058
tp4059
Rp4060
ag2
(S'142.0'
p4061
tp4062
Rp4063
ag2
(S'1.0'
p4064
tp4065
Rp4066
ag2
(S'1.2'
p4067
tp4068
Rp4069
ag2
(S'2.0'
p4070
tp4071
Rp4072
ag2
(S'1.0'
p4073
tp4074
Rp4075
ag2
(S'7.0'
p4076
tp4077
Rp4078
ag2
(g85
tp4079
Rp4080
aa(lp4081
g2
(S'60.0'
p4082
tp4083
Rp4084
ag2
(S'0.0'
p4085
tp4086
Rp4087
ag2
(S'4.0'
p4088
tp4089
Rp4090
ag2
(S'150.0'
p4091
tp4092
Rp4093
ag2
(S'258.0'
p4094
tp4095
Rp4096
ag2
(S'0.0'
p4097
tp4098
Rp4099
ag2
(S'2.0'
p4100
tp4101
Rp4102
ag2
(S'157.0'
p4103
tp4104
Rp4105
ag2
(S'0.0'
p4106
tp4107
Rp4108
ag2
(S'2.6'
p4109
tp4110
Rp4111
ag2
(S'2.0'
p4112
tp4113
Rp4114
ag2
(S'2.0'
p4115
tp4116
Rp4117
ag2
(S'7.0'
p4118
tp4119
Rp4120
ag2
(g297
tp4121
Rp4122
aa(lp4123
g2
(S'52.0'
p4124
tp4125
Rp4126
ag2
(S'1.0'
p4127
tp4128
Rp4129
ag2
(S'2.0'
p4130
tp4131
Rp4132
ag2
(S'134.0'
p4133
tp4134
Rp4135
ag2
(S'201.0'
p4136
tp4137
Rp4138
ag2
(S'0.0'
p4139
tp4140
Rp4141
ag2
(S'0.0'
p4142
tp4143
Rp4144
ag2
(S'158.0'
p4145
tp4146
Rp4147
ag2
(S'0.0'
p4148
tp4149
Rp4150
ag2
(S'0.8'
p4151
tp4152
Rp4153
ag2
(S'1.0'
p4154
tp4155
Rp4156
ag2
(S'1.0'
p4157
tp4158
Rp4159
ag2
(S'3.0'
p4160
tp4161
Rp4162
ag2
(g42
tp4163
Rp4164
aa(lp4165
g2
(S'48.0'
p4166
tp4167
Rp4168
ag2
(S'1.0'
p4169
tp4170
Rp4171
ag2
(S'4.0'
p4172
tp4173
Rp4174
ag2
(S'122.0'
p4175
tp4176
Rp4177
ag2
(S'222.0'
p4178
tp4179
Rp4180
ag2
(S'0.0'
p4181
tp4182
Rp4183
ag2
(S'2.0'
p4184
tp4185
Rp4186
ag2
(S'186.0'
p4187
tp4188
Rp4189
ag2
(S'0.0'
p4190
tp4191
Rp4192
ag2
(S'0.0'
p4193
tp4194
Rp4195
ag2
(S'1.0'
p4196
tp4197
Rp4198
ag2
(S'0.0'
p4199
tp4200
Rp4201
ag2
(S'3.0'
p4202
tp4203
Rp4204
ag2
(g42
tp4205
Rp4206
aa(lp4207
g2
(S'45.0'
p4208
tp4209
Rp4210
ag2
(S'1.0'
p4211
tp4212
Rp4213
ag2
(S'4.0'
p4214
tp4215
Rp4216
ag2
(S'115.0'
p4217
tp4218
Rp4219
ag2
(S'260.0'
p4220
tp4221
Rp4222
ag2
(S'0.0'
p4223
tp4224
Rp4225
ag2
(S'2.0'
p4226
tp4227
Rp4228
ag2
(S'185.0'
p4229
tp4230
Rp4231
ag2
(S'0.0'
p4232
tp4233
Rp4234
ag2
(S'0.0'
p4235
tp4236
Rp4237
ag2
(S'1.0'
p4238
tp4239
Rp4240
ag2
(S'0.0'
p4241
tp4242
Rp4243
ag2
(S'3.0'
p4244
tp4245
Rp4246
ag2
(g42
tp4247
Rp4248
aa(lp4249
g2
(S'34.0'
p4250
tp4251
Rp4252
ag2
(S'1.0'
p4253
tp4254
Rp4255
ag2
(S'1.0'
p4256
tp4257
Rp4258
ag2
(S'118.0'
p4259
tp4260
Rp4261
ag2
(S'182.0'
p4262
tp4263
Rp4264
ag2
(S'0.0'
p4265
tp4266
Rp4267
ag2
(S'2.0'
p4268
tp4269
Rp4270
ag2
(S'174.0'
p4271
tp4272
Rp4273
ag2
(S'0.0'
p4274
tp4275
Rp4276
ag2
(S'0.0'
p4277
tp4278
Rp4279
ag2
(S'1.0'
p4280
tp4281
Rp4282
ag2
(S'0.0'
p4283
tp4284
Rp4285
ag2
(S'3.0'
p4286
tp4287
Rp4288
ag2
(g42
tp4289
Rp4290
aa(lp4291
g2
(S'57.0'
p4292
tp4293
Rp4294
ag2
(S'0.0'
p4295
tp4296
Rp4297
ag2
(S'4.0'
p4298
tp4299
Rp4300
ag2
(S'128.0'
p4301
tp4302
Rp4303
ag2
(S'303.0'
p4304
tp4305
Rp4306
ag2
(S'0.0'
p4307
tp4308
Rp4309
ag2
(S'2.0'
p4310
tp4311
Rp4312
ag2
(S'159.0'
p4313
tp4314
Rp4315
ag2
(S'0.0'
p4316
tp4317
Rp4318
ag2
(S'0.0'
p4319
tp4320
Rp4321
ag2
(S'1.0'
p4322
tp4323
Rp4324
ag2
(S'1.0'
p4325
tp4326
Rp4327
ag2
(S'3.0'
p4328
tp4329
Rp4330
ag2
(g42
tp4331
Rp4332
aa(lp4333
g2
(S'71.0'
p4334
tp4335
Rp4336
ag2
(S'0.0'
p4337
tp4338
Rp4339
ag2
(S'3.0'
p4340
tp4341
Rp4342
ag2
(S'110.0'
p4343
tp4344
Rp4345
ag2
(S'265.0'
p4346
tp4347
Rp4348
ag2
(S'1.0'
p4349
tp4350
Rp4351
ag2
(S'2.0'
p4352
tp4353
Rp4354
ag2
(S'130.0'
p4355
tp4356
Rp4357
ag2
(S'0.0'
p4358
tp4359
Rp4360
ag2
(S'0.0'
p4361
tp4362
Rp4363
ag2
(S'1.0'
p4364
tp4365
Rp4366
ag2
(S'1.0'
p4367
tp4368
Rp4369
ag2
(S'3.0'
p4370
tp4371
Rp4372
ag2
(g42
tp4373
Rp4374
aa(lp4375
g2
(S'49.0'
p4376
tp4377
Rp4378
ag2
(S'1.0'
p4379
tp4380
Rp4381
ag2
(S'3.0'
p4382
tp4383
Rp4384
ag2
(S'120.0'
p4385
tp4386
Rp4387
ag2
(S'188.0'
p4388
tp4389
Rp4390
ag2
(S'0.0'
p4391
tp4392
Rp4393
ag2
(S'0.0'
p4394
tp4395
Rp4396
ag2
(S'139.0'
p4397
tp4398
Rp4399
ag2
(S'0.0'
p4400
tp4401
Rp4402
ag2
(S'2.0'
p4403
tp4404
Rp4405
ag2
(S'2.0'
p4406
tp4407
Rp4408
ag2
(S'3.0'
p4409
tp4410
Rp4411
ag2
(S'7.0'
p4412
tp4413
Rp4414
ag2
(g297
tp4415
Rp4416
aa(lp4417
g2
(S'54.0'
p4418
tp4419
Rp4420
ag2
(S'1.0'
p4421
tp4422
Rp4423
ag2
(S'2.0'
p4424
tp4425
Rp4426
ag2
(S'108.0'
p4427
tp4428
Rp4429
ag2
(S'309.0'
p4430
tp4431
Rp4432
ag2
(S'0.0'
p4433
tp4434
Rp4435
ag2
(S'0.0'
p4436
tp4437
Rp4438
ag2
(S'156.0'
p4439
tp4440
Rp4441
ag2
(S'0.0'
p4442
tp4443
Rp4444
ag2
(S'0.0'
p4445
tp4446
Rp4447
ag2
(S'1.0'
p4448
tp4449
Rp4450
ag2
(S'0.0'
p4451
tp4452
Rp4453
ag2
(S'7.0'
p4454
tp4455
Rp4456
ag2
(g42
tp4457
Rp4458
aa(lp4459
g2
(S'59.0'
p4460
tp4461
Rp4462
ag2
(S'1.0'
p4463
tp4464
Rp4465
ag2
(S'4.0'
p4466
tp4467
Rp4468
ag2
(S'140.0'
p4469
tp4470
Rp4471
ag2
(S'177.0'
p4472
tp4473
Rp4474
ag2
(S'0.0'
p4475
tp4476
Rp4477
ag2
(S'0.0'
p4478
tp4479
Rp4480
ag2
(S'162.0'
p4481
tp4482
Rp4483
ag2
(S'1.0'
p4484
tp4485
Rp4486
ag2
(S'0.0'
p4487
tp4488
Rp4489
ag2
(S'1.0'
p4490
tp4491
Rp4492
ag2
(S'1.0'
p4493
tp4494
Rp4495
ag2
(S'7.0'
p4496
tp4497
Rp4498
ag2
(g85
tp4499
Rp4500
aa(lp4501
g2
(S'57.0'
p4502
tp4503
Rp4504
ag2
(S'1.0'
p4505
tp4506
Rp4507
ag2
(S'3.0'
p4508
tp4509
Rp4510
ag2
(S'128.0'
p4511
tp4512
Rp4513
ag2
(S'229.0'
p4514
tp4515
Rp4516
ag2
(S'0.0'
p4517
tp4518
Rp4519
ag2
(S'2.0'
p4520
tp4521
Rp4522
ag2
(S'150.0'
p4523
tp4524
Rp4525
ag2
(S'0.0'
p4526
tp4527
Rp4528
ag2
(S'0.4'
p4529
tp4530
Rp4531
ag2
(S'2.0'
p4532
tp4533
Rp4534
ag2
(S'1.0'
p4535
tp4536
Rp4537
ag2
(S'7.0'
p4538
tp4539
Rp4540
ag2
(g128
tp4541
Rp4542
aa(lp4543
g2
(S'61.0'
p4544
tp4545
Rp4546
ag2
(S'1.0'
p4547
tp4548
Rp4549
ag2
(S'4.0'
p4550
tp4551
Rp4552
ag2
(S'120.0'
p4553
tp4554
Rp4555
ag2
(S'260.0'
p4556
tp4557
Rp4558
ag2
(S'0.0'
p4559
tp4560
Rp4561
ag2
(S'0.0'
p4562
tp4563
Rp4564
ag2
(S'140.0'
p4565
tp4566
Rp4567
ag2
(S'1.0'
p4568
tp4569
Rp4570
ag2
(S'3.6'
p4571
tp4572
Rp4573
ag2
(S'2.0'
p4574
tp4575
Rp4576
ag2
(S'1.0'
p4577
tp4578
Rp4579
ag2
(S'7.0'
p4580
tp4581
Rp4582
ag2
(g85
tp4583
Rp4584
aa(lp4585
g2
(S'39.0'
p4586
tp4587
Rp4588
ag2
(S'1.0'
p4589
tp4590
Rp4591
ag2
(S'4.0'
p4592
tp4593
Rp4594
ag2
(S'118.0'
p4595
tp4596
Rp4597
ag2
(S'219.0'
p4598
tp4599
Rp4600
ag2
(S'0.0'
p4601
tp4602
Rp4603
ag2
(S'0.0'
p4604
tp4605
Rp4606
ag2
(S'140.0'
p4607
tp4608
Rp4609
ag2
(S'0.0'
p4610
tp4611
Rp4612
ag2
(S'1.2'
p4613
tp4614
Rp4615
ag2
(S'2.0'
p4616
tp4617
Rp4618
ag2
(S'0.0'
p4619
tp4620
Rp4621
ag2
(S'7.0'
p4622
tp4623
Rp4624
ag2
(g297
tp4625
Rp4626
aa(lp4627
g2
(S'61.0'
p4628
tp4629
Rp4630
ag2
(S'0.0'
p4631
tp4632
Rp4633
ag2
(S'4.0'
p4634
tp4635
Rp4636
ag2
(S'145.0'
p4637
tp4638
Rp4639
ag2
(S'307.0'
p4640
tp4641
Rp4642
ag2
(S'0.0'
p4643
tp4644
Rp4645
ag2
(S'2.0'
p4646
tp4647
Rp4648
ag2
(S'146.0'
p4649
tp4650
Rp4651
ag2
(S'1.0'
p4652
tp4653
Rp4654
ag2
(S'1.0'
p4655
tp4656
Rp4657
ag2
(S'2.0'
p4658
tp4659
Rp4660
ag2
(S'0.0'
p4661
tp4662
Rp4663
ag2
(S'7.0'
p4664
tp4665
Rp4666
ag2
(g128
tp4667
Rp4668
aa(lp4669
g2
(S'56.0'
p4670
tp4671
Rp4672
ag2
(S'1.0'
p4673
tp4674
Rp4675
ag2
(S'4.0'
p4676
tp4677
Rp4678
ag2
(S'125.0'
p4679
tp4680
Rp4681
ag2
(S'249.0'
p4682
tp4683
Rp4684
ag2
(S'1.0'
p4685
tp4686
Rp4687
ag2
(S'2.0'
p4688
tp4689
Rp4690
ag2
(S'144.0'
p4691
tp4692
Rp4693
ag2
(S'1.0'
p4694
tp4695
Rp4696
ag2
(S'1.2'
p4697
tp4698
Rp4699
ag2
(S'2.0'
p4700
tp4701
Rp4702
ag2
(S'1.0'
p4703
tp4704
Rp4705
ag2
(S'3.0'
p4706
tp4707
Rp4708
ag2
(g128
tp4709
Rp4710
aa(lp4711
g2
(S'52.0'
p4712
tp4713
Rp4714
ag2
(S'1.0'
p4715
tp4716
Rp4717
ag2
(S'1.0'
p4718
tp4719
Rp4720
ag2
(S'118.0'
p4721
tp4722
Rp4723
ag2
(S'186.0'
p4724
tp4725
Rp4726
ag2
(S'0.0'
p4727
tp4728
Rp4729
ag2
(S'2.0'
p4730
tp4731
Rp4732
ag2
(S'190.0'
p4733
tp4734
Rp4735
ag2
(S'0.0'
p4736
tp4737
Rp4738
ag2
(S'0.0'
p4739
tp4740
Rp4741
ag2
(S'2.0'
p4742
tp4743
Rp4744
ag2
(S'0.0'
p4745
tp4746
Rp4747
ag2
(S'6.0'
p4748
tp4749
Rp4750
ag2
(g42
tp4751
Rp4752
aa(lp4753
g2
(S'43.0'
p4754
tp4755
Rp4756
ag2
(S'0.0'
p4757
tp4758
Rp4759
ag2
(S'4.0'
p4760
tp4761
Rp4762
ag2
(S'132.0'
p4763
tp4764
Rp4765
ag2
(S'341.0'
p4766
tp4767
Rp4768
ag2
(S'1.0'
p4769
tp4770
Rp4771
ag2
(S'2.0'
p4772
tp4773
Rp4774
ag2
(S'136.0'
p4775
tp4776
Rp4777
ag2
(S'1.0'
p4778
tp4779
Rp4780
ag2
(S'3.0'
p4781
tp4782
Rp4783
ag2
(S'2.0'
p4784
tp4785
Rp4786
ag2
(S'0.0'
p4787
tp4788
Rp4789
ag2
(S'7.0'
p4790
tp4791
Rp4792
ag2
(g85
tp4793
Rp4794
aa(lp4795
g2
(S'62.0'
p4796
tp4797
Rp4798
ag2
(S'0.0'
p4799
tp4800
Rp4801
ag2
(S'3.0'
p4802
tp4803
Rp4804
ag2
(S'130.0'
p4805
tp4806
Rp4807
ag2
(S'263.0'
p4808
tp4809
Rp4810
ag2
(S'0.0'
p4811
tp4812
Rp4813
ag2
(S'0.0'
p4814
tp4815
Rp4816
ag2
(S'97.0'
p4817
tp4818
Rp4819
ag2
(S'0.0'
p4820
tp4821
Rp4822
ag2
(S'1.2'
p4823
tp4824
Rp4825
ag2
(S'2.0'
p4826
tp4827
Rp4828
ag2
(S'1.0'
p4829
tp4830
Rp4831
ag2
(S'7.0'
p4832
tp4833
Rp4834
ag2
(g85
tp4835
Rp4836
aa(lp4837
g2
(S'41.0'
p4838
tp4839
Rp4840
ag2
(S'1.0'
p4841
tp4842
Rp4843
ag2
(S'2.0'
p4844
tp4845
Rp4846
ag2
(S'135.0'
p4847
tp4848
Rp4849
ag2
(S'203.0'
p4850
tp4851
Rp4852
ag2
(S'0.0'
p4853
tp4854
Rp4855
ag2
(S'0.0'
p4856
tp4857
Rp4858
ag2
(S'132.0'
p4859
tp4860
Rp4861
ag2
(S'0.0'
p4862
tp4863
Rp4864
ag2
(S'0.0'
p4865
tp4866
Rp4867
ag2
(S'2.0'
p4868
tp4869
Rp4870
ag2
(S'0.0'
p4871
tp4872
Rp4873
ag2
(S'6.0'
p4874
tp4875
Rp4876
ag2
(g42
tp4877
Rp4878
aa(lp4879
g2
(S'58.0'
p4880
tp4881
Rp4882
ag2
(S'1.0'
p4883
tp4884
Rp4885
ag2
(S'3.0'
p4886
tp4887
Rp4888
ag2
(S'140.0'
p4889
tp4890
Rp4891
ag2
(S'211.0'
p4892
tp4893
Rp4894
ag2
(S'1.0'
p4895
tp4896
Rp4897
ag2
(S'2.0'
p4898
tp4899
Rp4900
ag2
(S'165.0'
p4901
tp4902
Rp4903
ag2
(S'0.0'
p4904
tp4905
Rp4906
ag2
(S'0.0'
p4907
tp4908
Rp4909
ag2
(S'1.0'
p4910
tp4911
Rp4912
ag2
(S'0.0'
p4913
tp4914
Rp4915
ag2
(S'3.0'
p4916
tp4917
Rp4918
ag2
(g42
tp4919
Rp4920
aa(lp4921
g2
(S'35.0'
p4922
tp4923
Rp4924
ag2
(S'0.0'
p4925
tp4926
Rp4927
ag2
(S'4.0'
p4928
tp4929
Rp4930
ag2
(S'138.0'
p4931
tp4932
Rp4933
ag2
(S'183.0'
p4934
tp4935
Rp4936
ag2
(S'0.0'
p4937
tp4938
Rp4939
ag2
(S'0.0'
p4940
tp4941
Rp4942
ag2
(S'182.0'
p4943
tp4944
Rp4945
ag2
(S'0.0'
p4946
tp4947
Rp4948
ag2
(S'1.4'
p4949
tp4950
Rp4951
ag2
(S'1.0'
p4952
tp4953
Rp4954
ag2
(S'0.0'
p4955
tp4956
Rp4957
ag2
(S'3.0'
p4958
tp4959
Rp4960
ag2
(g42
tp4961
Rp4962
aa(lp4963
g2
(S'63.0'
p4964
tp4965
Rp4966
ag2
(S'1.0'
p4967
tp4968
Rp4969
ag2
(S'4.0'
p4970
tp4971
Rp4972
ag2
(S'130.0'
p4973
tp4974
Rp4975
ag2
(S'330.0'
p4976
tp4977
Rp4978
ag2
(S'1.0'
p4979
tp4980
Rp4981
ag2
(S'2.0'
p4982
tp4983
Rp4984
ag2
(S'132.0'
p4985
tp4986
Rp4987
ag2
(S'1.0'
p4988
tp4989
Rp4990
ag2
(S'1.8'
p4991
tp4992
Rp4993
ag2
(S'1.0'
p4994
tp4995
Rp4996
ag2
(S'3.0'
p4997
tp4998
Rp4999
ag2
(S'7.0'
p5000
tp5001
Rp5002
ag2
(g297
tp5003
Rp5004
aa(lp5005
g2
(S'65.0'
p5006
tp5007
Rp5008
ag2
(S'1.0'
p5009
tp5010
Rp5011
ag2
(S'4.0'
p5012
tp5013
Rp5014
ag2
(S'135.0'
p5015
tp5016
Rp5017
ag2
(S'254.0'
p5018
tp5019
Rp5020
ag2
(S'0.0'
p5021
tp5022
Rp5023
ag2
(S'2.0'
p5024
tp5025
Rp5026
ag2
(S'127.0'
p5027
tp5028
Rp5029
ag2
(S'0.0'
p5030
tp5031
Rp5032
ag2
(S'2.8'
p5033
tp5034
Rp5035
ag2
(S'2.0'
p5036
tp5037
Rp5038
ag2
(S'1.0'
p5039
tp5040
Rp5041
ag2
(S'7.0'
p5042
tp5043
Rp5044
ag2
(g85
tp5045
Rp5046
aa(lp5047
g2
(S'48.0'
p5048
tp5049
Rp5050
ag2
(S'1.0'
p5051
tp5052
Rp5053
ag2
(S'4.0'
p5054
tp5055
Rp5056
ag2
(S'130.0'
p5057
tp5058
Rp5059
ag2
(S'256.0'
p5060
tp5061
Rp5062
ag2
(S'1.0'
p5063
tp5064
Rp5065
ag2
(S'2.0'
p5066
tp5067
Rp5068
ag2
(S'150.0'
p5069
tp5070
Rp5071
ag2
(S'1.0'
p5072
tp5073
Rp5074
ag2
(S'0.0'
p5075
tp5076
Rp5077
ag2
(S'1.0'
p5078
tp5079
Rp5080
ag2
(S'2.0'
p5081
tp5082
Rp5083
ag2
(S'7.0'
p5084
tp5085
Rp5086
ag2
(g297
tp5087
Rp5088
aa(lp5089
g2
(S'63.0'
p5090
tp5091
Rp5092
ag2
(S'0.0'
p5093
tp5094
Rp5095
ag2
(S'4.0'
p5096
tp5097
Rp5098
ag2
(S'150.0'
p5099
tp5100
Rp5101
ag2
(S'407.0'
p5102
tp5103
Rp5104
ag2
(S'0.0'
p5105
tp5106
Rp5107
ag2
(S'2.0'
p5108
tp5109
Rp5110
ag2
(S'154.0'
p5111
tp5112
Rp5113
ag2
(S'0.0'
p5114
tp5115
Rp5116
ag2
(S'4.0'
p5117
tp5118
Rp5119
ag2
(S'2.0'
p5120
tp5121
Rp5122
ag2
(S'3.0'
p5123
tp5124
Rp5125
ag2
(S'7.0'
p5126
tp5127
Rp5128
ag2
(g1054
tp5129
Rp5130
aa(lp5131
g2
(S'51.0'
p5132
tp5133
Rp5134
ag2
(S'1.0'
p5135
tp5136
Rp5137
ag2
(S'3.0'
p5138
tp5139
Rp5140
ag2
(S'100.0'
p5141
tp5142
Rp5143
ag2
(S'222.0'
p5144
tp5145
Rp5146
ag2
(S'0.0'
p5147
tp5148
Rp5149
ag2
(S'0.0'
p5150
tp5151
Rp5152
ag2
(S'143.0'
p5153
tp5154
Rp5155
ag2
(S'1.0'
p5156
tp5157
Rp5158
ag2
(S'1.2'
p5159
tp5160
Rp5161
ag2
(S'2.0'
p5162
tp5163
Rp5164
ag2
(S'0.0'
p5165
tp5166
Rp5167
ag2
(S'3.0'
p5168
tp5169
Rp5170
ag2
(g42
tp5171
Rp5172
aa(lp5173
g2
(S'55.0'
p5174
tp5175
Rp5176
ag2
(S'1.0'
p5177
tp5178
Rp5179
ag2
(S'4.0'
p5180
tp5181
Rp5182
ag2
(S'140.0'
p5183
tp5184
Rp5185
ag2
(S'217.0'
p5186
tp5187
Rp5188
ag2
(S'0.0'
p5189
tp5190
Rp5191
ag2
(S'0.0'
p5192
tp5193
Rp5194
ag2
(S'111.0'
p5195
tp5196
Rp5197
ag2
(S'1.0'
p5198
tp5199
Rp5200
ag2
(S'5.6'
p5201
tp5202
Rp5203
ag2
(S'3.0'
p5204
tp5205
Rp5206
ag2
(S'0.0'
p5207
tp5208
Rp5209
ag2
(S'7.0'
p5210
tp5211
Rp5212
ag2
(g297
tp5213
Rp5214
aa(lp5215
g2
(S'65.0'
p5216
tp5217
Rp5218
ag2
(S'1.0'
p5219
tp5220
Rp5221
ag2
(S'1.0'
p5222
tp5223
Rp5224
ag2
(S'138.0'
p5225
tp5226
Rp5227
ag2
(S'282.0'
p5228
tp5229
Rp5230
ag2
(S'1.0'
p5231
tp5232
Rp5233
ag2
(S'2.0'
p5234
tp5235
Rp5236
ag2
(S'174.0'
p5237
tp5238
Rp5239
ag2
(S'0.0'
p5240
tp5241
Rp5242
ag2
(S'1.4'
p5243
tp5244
Rp5245
ag2
(S'2.0'
p5246
tp5247
Rp5248
ag2
(S'1.0'
p5249
tp5250
Rp5251
ag2
(S'3.0'
p5252
tp5253
Rp5254
ag2
(g128
tp5255
Rp5256
aa(lp5257
g2
(S'45.0'
p5258
tp5259
Rp5260
ag2
(S'0.0'
p5261
tp5262
Rp5263
ag2
(S'2.0'
p5264
tp5265
Rp5266
ag2
(S'130.0'
p5267
tp5268
Rp5269
ag2
(S'234.0'
p5270
tp5271
Rp5272
ag2
(S'0.0'
p5273
tp5274
Rp5275
ag2
(S'2.0'
p5276
tp5277
Rp5278
ag2
(S'175.0'
p5279
tp5280
Rp5281
ag2
(S'0.0'
p5282
tp5283
Rp5284
ag2
(S'0.6'
p5285
tp5286
Rp5287
ag2
(S'2.0'
p5288
tp5289
Rp5290
ag2
(S'0.0'
p5291
tp5292
Rp5293
ag2
(S'3.0'
p5294
tp5295
Rp5296
ag2
(g42
tp5297
Rp5298
aa(lp5299
g2
(S'56.0'
p5300
tp5301
Rp5302
ag2
(S'0.0'
p5303
tp5304
Rp5305
ag2
(S'4.0'
p5306
tp5307
Rp5308
ag2
(S'200.0'
p5309
tp5310
Rp5311
ag2
(S'288.0'
p5312
tp5313
Rp5314
ag2
(S'1.0'
p5315
tp5316
Rp5317
ag2
(S'2.0'
p5318
tp5319
Rp5320
ag2
(S'133.0'
p5321
tp5322
Rp5323
ag2
(S'1.0'
p5324
tp5325
Rp5326
ag2
(S'4.0'
p5327
tp5328
Rp5329
ag2
(S'3.0'
p5330
tp5331
Rp5332
ag2
(S'2.0'
p5333
tp5334
Rp5335
ag2
(S'7.0'
p5336
tp5337
Rp5338
ag2
(g297
tp5339
Rp5340
aa(lp5341
g2
(S'54.0'
p5342
tp5343
Rp5344
ag2
(S'1.0'
p5345
tp5346
Rp5347
ag2
(S'4.0'
p5348
tp5349
Rp5350
ag2
(S'110.0'
p5351
tp5352
Rp5353
ag2
(S'239.0'
p5354
tp5355
Rp5356
ag2
(S'0.0'
p5357
tp5358
Rp5359
ag2
(S'0.0'
p5360
tp5361
Rp5362
ag2
(S'126.0'
p5363
tp5364
Rp5365
ag2
(S'1.0'
p5366
tp5367
Rp5368
ag2
(S'2.8'
p5369
tp5370
Rp5371
ag2
(S'2.0'
p5372
tp5373
Rp5374
ag2
(S'1.0'
p5375
tp5376
Rp5377
ag2
(S'7.0'
p5378
tp5379
Rp5380
ag2
(g297
tp5381
Rp5382
aa(lp5383
g2
(S'44.0'
p5384
tp5385
Rp5386
ag2
(S'1.0'
p5387
tp5388
Rp5389
ag2
(S'2.0'
p5390
tp5391
Rp5392
ag2
(S'120.0'
p5393
tp5394
Rp5395
ag2
(S'220.0'
p5396
tp5397
Rp5398
ag2
(S'0.0'
p5399
tp5400
Rp5401
ag2
(S'0.0'
p5402
tp5403
Rp5404
ag2
(S'170.0'
p5405
tp5406
Rp5407
ag2
(S'0.0'
p5408
tp5409
Rp5410
ag2
(S'0.0'
p5411
tp5412
Rp5413
ag2
(S'1.0'
p5414
tp5415
Rp5416
ag2
(S'0.0'
p5417
tp5418
Rp5419
ag2
(S'3.0'
p5420
tp5421
Rp5422
ag2
(g42
tp5423
Rp5424
aa(lp5425
g2
(S'62.0'
p5426
tp5427
Rp5428
ag2
(S'0.0'
p5429
tp5430
Rp5431
ag2
(S'4.0'
p5432
tp5433
Rp5434
ag2
(S'124.0'
p5435
tp5436
Rp5437
ag2
(S'209.0'
p5438
tp5439
Rp5440
ag2
(S'0.0'
p5441
tp5442
Rp5443
ag2
(S'0.0'
p5444
tp5445
Rp5446
ag2
(S'163.0'
p5447
tp5448
Rp5449
ag2
(S'0.0'
p5450
tp5451
Rp5452
ag2
(S'0.0'
p5453
tp5454
Rp5455
ag2
(S'1.0'
p5456
tp5457
Rp5458
ag2
(S'0.0'
p5459
tp5460
Rp5461
ag2
(S'3.0'
p5462
tp5463
Rp5464
ag2
(g42
tp5465
Rp5466
aa(lp5467
g2
(S'54.0'
p5468
tp5469
Rp5470
ag2
(S'1.0'
p5471
tp5472
Rp5473
ag2
(S'3.0'
p5474
tp5475
Rp5476
ag2
(S'120.0'
p5477
tp5478
Rp5479
ag2
(S'258.0'
p5480
tp5481
Rp5482
ag2
(S'0.0'
p5483
tp5484
Rp5485
ag2
(S'2.0'
p5486
tp5487
Rp5488
ag2
(S'147.0'
p5489
tp5490
Rp5491
ag2
(S'0.0'
p5492
tp5493
Rp5494
ag2
(S'0.4'
p5495
tp5496
Rp5497
ag2
(S'2.0'
p5498
tp5499
Rp5500
ag2
(S'0.0'
p5501
tp5502
Rp5503
ag2
(S'7.0'
p5504
tp5505
Rp5506
ag2
(g42
tp5507
Rp5508
aa(lp5509
g2
(S'51.0'
p5510
tp5511
Rp5512
ag2
(S'1.0'
p5513
tp5514
Rp5515
ag2
(S'3.0'
p5516
tp5517
Rp5518
ag2
(S'94.0'
p5519
tp5520
Rp5521
ag2
(S'227.0'
p5522
tp5523
Rp5524
ag2
(S'0.0'
p5525
tp5526
Rp5527
ag2
(S'0.0'
p5528
tp5529
Rp5530
ag2
(S'154.0'
p5531
tp5532
Rp5533
ag2
(S'1.0'
p5534
tp5535
Rp5536
ag2
(S'0.0'
p5537
tp5538
Rp5539
ag2
(S'1.0'
p5540
tp5541
Rp5542
ag2
(S'1.0'
p5543
tp5544
Rp5545
ag2
(S'7.0'
p5546
tp5547
Rp5548
ag2
(g42
tp5549
Rp5550
aa(lp5551
g2
(S'29.0'
p5552
tp5553
Rp5554
ag2
(S'1.0'
p5555
tp5556
Rp5557
ag2
(S'2.0'
p5558
tp5559
Rp5560
ag2
(S'130.0'
p5561
tp5562
Rp5563
ag2
(S'204.0'
p5564
tp5565
Rp5566
ag2
(S'0.0'
p5567
tp5568
Rp5569
ag2
(S'2.0'
p5570
tp5571
Rp5572
ag2
(S'202.0'
p5573
tp5574
Rp5575
ag2
(S'0.0'
p5576
tp5577
Rp5578
ag2
(S'0.0'
p5579
tp5580
Rp5581
ag2
(S'1.0'
p5582
tp5583
Rp5584
ag2
(S'0.0'
p5585
tp5586
Rp5587
ag2
(S'3.0'
p5588
tp5589
Rp5590
ag2
(g42
tp5591
Rp5592
aa(lp5593
g2
(S'51.0'
p5594
tp5595
Rp5596
ag2
(S'1.0'
p5597
tp5598
Rp5599
ag2
(S'4.0'
p5600
tp5601
Rp5602
ag2
(S'140.0'
p5603
tp5604
Rp5605
ag2
(S'261.0'
p5606
tp5607
Rp5608
ag2
(S'0.0'
p5609
tp5610
Rp5611
ag2
(S'2.0'
p5612
tp5613
Rp5614
ag2
(S'186.0'
p5615
tp5616
Rp5617
ag2
(S'1.0'
p5618
tp5619
Rp5620
ag2
(S'0.0'
p5621
tp5622
Rp5623
ag2
(S'1.0'
p5624
tp5625
Rp5626
ag2
(S'0.0'
p5627
tp5628
Rp5629
ag2
(S'3.0'
p5630
tp5631
Rp5632
ag2
(g42
tp5633
Rp5634
aa(lp5635
g2
(S'43.0'
p5636
tp5637
Rp5638
ag2
(S'0.0'
p5639
tp5640
Rp5641
ag2
(S'3.0'
p5642
tp5643
Rp5644
ag2
(S'122.0'
p5645
tp5646
Rp5647
ag2
(S'213.0'
p5648
tp5649
Rp5650
ag2
(S'0.0'
p5651
tp5652
Rp5653
ag2
(S'0.0'
p5654
tp5655
Rp5656
ag2
(S'165.0'
p5657
tp5658
Rp5659
ag2
(S'0.0'
p5660
tp5661
Rp5662
ag2
(S'0.2'
p5663
tp5664
Rp5665
ag2
(S'2.0'
p5666
tp5667
Rp5668
ag2
(S'0.0'
p5669
tp5670
Rp5671
ag2
(S'3.0'
p5672
tp5673
Rp5674
ag2
(g42
tp5675
Rp5676
aa(lp5677
g2
(S'55.0'
p5678
tp5679
Rp5680
ag2
(S'0.0'
p5681
tp5682
Rp5683
ag2
(S'2.0'
p5684
tp5685
Rp5686
ag2
(S'135.0'
p5687
tp5688
Rp5689
ag2
(S'250.0'
p5690
tp5691
Rp5692
ag2
(S'0.0'
p5693
tp5694
Rp5695
ag2
(S'2.0'
p5696
tp5697
Rp5698
ag2
(S'161.0'
p5699
tp5700
Rp5701
ag2
(S'0.0'
p5702
tp5703
Rp5704
ag2
(S'1.4'
p5705
tp5706
Rp5707
ag2
(S'2.0'
p5708
tp5709
Rp5710
ag2
(S'0.0'
p5711
tp5712
Rp5713
ag2
(S'3.0'
p5714
tp5715
Rp5716
ag2
(g42
tp5717
Rp5718
aa(lp5719
g2
(S'70.0'
p5720
tp5721
Rp5722
ag2
(S'1.0'
p5723
tp5724
Rp5725
ag2
(S'4.0'
p5726
tp5727
Rp5728
ag2
(S'145.0'
p5729
tp5730
Rp5731
ag2
(S'174.0'
p5732
tp5733
Rp5734
ag2
(S'0.0'
p5735
tp5736
Rp5737
ag2
(S'0.0'
p5738
tp5739
Rp5740
ag2
(S'125.0'
p5741
tp5742
Rp5743
ag2
(S'1.0'
p5744
tp5745
Rp5746
ag2
(S'2.6'
p5747
tp5748
Rp5749
ag2
(S'3.0'
p5750
tp5751
Rp5752
ag2
(S'0.0'
p5753
tp5754
Rp5755
ag2
(S'7.0'
p5756
tp5757
Rp5758
ag2
(g1054
tp5759
Rp5760
aa(lp5761
g2
(S'62.0'
p5762
tp5763
Rp5764
ag2
(S'1.0'
p5765
tp5766
Rp5767
ag2
(S'2.0'
p5768
tp5769
Rp5770
ag2
(S'120.0'
p5771
tp5772
Rp5773
ag2
(S'281.0'
p5774
tp5775
Rp5776
ag2
(S'0.0'
p5777
tp5778
Rp5779
ag2
(S'2.0'
p5780
tp5781
Rp5782
ag2
(S'103.0'
p5783
tp5784
Rp5785
ag2
(S'0.0'
p5786
tp5787
Rp5788
ag2
(S'1.4'
p5789
tp5790
Rp5791
ag2
(S'2.0'
p5792
tp5793
Rp5794
ag2
(S'1.0'
p5795
tp5796
Rp5797
ag2
(S'7.0'
p5798
tp5799
Rp5800
ag2
(g297
tp5801
Rp5802
aa(lp5803
g2
(S'35.0'
p5804
tp5805
Rp5806
ag2
(S'1.0'
p5807
tp5808
Rp5809
ag2
(S'4.0'
p5810
tp5811
Rp5812
ag2
(S'120.0'
p5813
tp5814
Rp5815
ag2
(S'198.0'
p5816
tp5817
Rp5818
ag2
(S'0.0'
p5819
tp5820
Rp5821
ag2
(S'0.0'
p5822
tp5823
Rp5824
ag2
(S'130.0'
p5825
tp5826
Rp5827
ag2
(S'1.0'
p5828
tp5829
Rp5830
ag2
(S'1.6'
p5831
tp5832
Rp5833
ag2
(S'2.0'
p5834
tp5835
Rp5836
ag2
(S'0.0'
p5837
tp5838
Rp5839
ag2
(S'7.0'
p5840
tp5841
Rp5842
ag2
(g128
tp5843
Rp5844
aa(lp5845
g2
(S'51.0'
p5846
tp5847
Rp5848
ag2
(S'1.0'
p5849
tp5850
Rp5851
ag2
(S'3.0'
p5852
tp5853
Rp5854
ag2
(S'125.0'
p5855
tp5856
Rp5857
ag2
(S'245.0'
p5858
tp5859
Rp5860
ag2
(S'1.0'
p5861
tp5862
Rp5863
ag2
(S'2.0'
p5864
tp5865
Rp5866
ag2
(S'166.0'
p5867
tp5868
Rp5869
ag2
(S'0.0'
p5870
tp5871
Rp5872
ag2
(S'2.4'
p5873
tp5874
Rp5875
ag2
(S'2.0'
p5876
tp5877
Rp5878
ag2
(S'0.0'
p5879
tp5880
Rp5881
ag2
(S'3.0'
p5882
tp5883
Rp5884
ag2
(g42
tp5885
Rp5886
aa(lp5887
g2
(S'59.0'
p5888
tp5889
Rp5890
ag2
(S'1.0'
p5891
tp5892
Rp5893
ag2
(S'2.0'
p5894
tp5895
Rp5896
ag2
(S'140.0'
p5897
tp5898
Rp5899
ag2
(S'221.0'
p5900
tp5901
Rp5902
ag2
(S'0.0'
p5903
tp5904
Rp5905
ag2
(S'0.0'
p5906
tp5907
Rp5908
ag2
(S'164.0'
p5909
tp5910
Rp5911
ag2
(S'1.0'
p5912
tp5913
Rp5914
ag2
(S'0.0'
p5915
tp5916
Rp5917
ag2
(S'1.0'
p5918
tp5919
Rp5920
ag2
(S'0.0'
p5921
tp5922
Rp5923
ag2
(S'3.0'
p5924
tp5925
Rp5926
ag2
(g42
tp5927
Rp5928
aa(lp5929
g2
(S'59.0'
p5930
tp5931
Rp5932
ag2
(S'1.0'
p5933
tp5934
Rp5935
ag2
(S'1.0'
p5936
tp5937
Rp5938
ag2
(S'170.0'
p5939
tp5940
Rp5941
ag2
(S'288.0'
p5942
tp5943
Rp5944
ag2
(S'0.0'
p5945
tp5946
Rp5947
ag2
(S'2.0'
p5948
tp5949
Rp5950
ag2
(S'159.0'
p5951
tp5952
Rp5953
ag2
(S'0.0'
p5954
tp5955
Rp5956
ag2
(S'0.2'
p5957
tp5958
Rp5959
ag2
(S'2.0'
p5960
tp5961
Rp5962
ag2
(S'0.0'
p5963
tp5964
Rp5965
ag2
(S'7.0'
p5966
tp5967
Rp5968
ag2
(g128
tp5969
Rp5970
aa(lp5971
g2
(S'52.0'
p5972
tp5973
Rp5974
ag2
(S'1.0'
p5975
tp5976
Rp5977
ag2
(S'2.0'
p5978
tp5979
Rp5980
ag2
(S'128.0'
p5981
tp5982
Rp5983
ag2
(S'205.0'
p5984
tp5985
Rp5986
ag2
(S'1.0'
p5987
tp5988
Rp5989
ag2
(S'0.0'
p5990
tp5991
Rp5992
ag2
(S'184.0'
p5993
tp5994
Rp5995
ag2
(S'0.0'
p5996
tp5997
Rp5998
ag2
(S'0.0'
p5999
tp6000
Rp6001
ag2
(S'1.0'
p6002
tp6003
Rp6004
ag2
(S'0.0'
p6005
tp6006
Rp6007
ag2
(S'3.0'
p6008
tp6009
Rp6010
ag2
(g42
tp6011
Rp6012
aa(lp6013
g2
(S'64.0'
p6014
tp6015
Rp6016
ag2
(S'1.0'
p6017
tp6018
Rp6019
ag2
(S'3.0'
p6020
tp6021
Rp6022
ag2
(S'125.0'
p6023
tp6024
Rp6025
ag2
(S'309.0'
p6026
tp6027
Rp6028
ag2
(S'0.0'
p6029
tp6030
Rp6031
ag2
(S'0.0'
p6032
tp6033
Rp6034
ag2
(S'131.0'
p6035
tp6036
Rp6037
ag2
(S'1.0'
p6038
tp6039
Rp6040
ag2
(S'1.8'
p6041
tp6042
Rp6043
ag2
(S'2.0'
p6044
tp6045
Rp6046
ag2
(S'0.0'
p6047
tp6048
Rp6049
ag2
(S'7.0'
p6050
tp6051
Rp6052
ag2
(g128
tp6053
Rp6054
aa(lp6055
g2
(S'58.0'
p6056
tp6057
Rp6058
ag2
(S'1.0'
p6059
tp6060
Rp6061
ag2
(S'3.0'
p6062
tp6063
Rp6064
ag2
(S'105.0'
p6065
tp6066
Rp6067
ag2
(S'240.0'
p6068
tp6069
Rp6070
ag2
(S'0.0'
p6071
tp6072
Rp6073
ag2
(S'2.0'
p6074
tp6075
Rp6076
ag2
(S'154.0'
p6077
tp6078
Rp6079
ag2
(S'1.0'
p6080
tp6081
Rp6082
ag2
(S'0.6'
p6083
tp6084
Rp6085
ag2
(S'2.0'
p6086
tp6087
Rp6088
ag2
(S'0.0'
p6089
tp6090
Rp6091
ag2
(S'7.0'
p6092
tp6093
Rp6094
ag2
(g42
tp6095
Rp6096
aa(lp6097
g2
(S'47.0'
p6098
tp6099
Rp6100
ag2
(S'1.0'
p6101
tp6102
Rp6103
ag2
(S'3.0'
p6104
tp6105
Rp6106
ag2
(S'108.0'
p6107
tp6108
Rp6109
ag2
(S'243.0'
p6110
tp6111
Rp6112
ag2
(S'0.0'
p6113
tp6114
Rp6115
ag2
(S'0.0'
p6116
tp6117
Rp6118
ag2
(S'152.0'
p6119
tp6120
Rp6121
ag2
(S'0.0'
p6122
tp6123
Rp6124
ag2
(S'0.0'
p6125
tp6126
Rp6127
ag2
(S'1.0'
p6128
tp6129
Rp6130
ag2
(S'0.0'
p6131
tp6132
Rp6133
ag2
(S'3.0'
p6134
tp6135
Rp6136
ag2
(g128
tp6137
Rp6138
aa(lp6139
g2
(S'57.0'
p6140
tp6141
Rp6142
ag2
(S'1.0'
p6143
tp6144
Rp6145
ag2
(S'4.0'
p6146
tp6147
Rp6148
ag2
(S'165.0'
p6149
tp6150
Rp6151
ag2
(S'289.0'
p6152
tp6153
Rp6154
ag2
(S'1.0'
p6155
tp6156
Rp6157
ag2
(S'2.0'
p6158
tp6159
Rp6160
ag2
(S'124.0'
p6161
tp6162
Rp6163
ag2
(S'0.0'
p6164
tp6165
Rp6166
ag2
(S'1.0'
p6167
tp6168
Rp6169
ag2
(S'2.0'
p6170
tp6171
Rp6172
ag2
(S'3.0'
p6173
tp6174
Rp6175
ag2
(S'7.0'
p6176
tp6177
Rp6178
ag2
(g1054
tp6179
Rp6180
aa(lp6181
g2
(S'41.0'
p6182
tp6183
Rp6184
ag2
(S'1.0'
p6185
tp6186
Rp6187
ag2
(S'3.0'
p6188
tp6189
Rp6190
ag2
(S'112.0'
p6191
tp6192
Rp6193
ag2
(S'250.0'
p6194
tp6195
Rp6196
ag2
(S'0.0'
p6197
tp6198
Rp6199
ag2
(S'0.0'
p6200
tp6201
Rp6202
ag2
(S'179.0'
p6203
tp6204
Rp6205
ag2
(S'0.0'
p6206
tp6207
Rp6208
ag2
(S'0.0'
p6209
tp6210
Rp6211
ag2
(S'1.0'
p6212
tp6213
Rp6214
ag2
(S'0.0'
p6215
tp6216
Rp6217
ag2
(S'3.0'
p6218
tp6219
Rp6220
ag2
(g42
tp6221
Rp6222
aa(lp6223
g2
(S'45.0'
p6224
tp6225
Rp6226
ag2
(S'1.0'
p6227
tp6228
Rp6229
ag2
(S'2.0'
p6230
tp6231
Rp6232
ag2
(S'128.0'
p6233
tp6234
Rp6235
ag2
(S'308.0'
p6236
tp6237
Rp6238
ag2
(S'0.0'
p6239
tp6240
Rp6241
ag2
(S'2.0'
p6242
tp6243
Rp6244
ag2
(S'170.0'
p6245
tp6246
Rp6247
ag2
(S'0.0'
p6248
tp6249
Rp6250
ag2
(S'0.0'
p6251
tp6252
Rp6253
ag2
(S'1.0'
p6254
tp6255
Rp6256
ag2
(S'0.0'
p6257
tp6258
Rp6259
ag2
(S'3.0'
p6260
tp6261
Rp6262
ag2
(g42
tp6263
Rp6264
aa(lp6265
g2
(S'60.0'
p6266
tp6267
Rp6268
ag2
(S'0.0'
p6269
tp6270
Rp6271
ag2
(S'3.0'
p6272
tp6273
Rp6274
ag2
(S'102.0'
p6275
tp6276
Rp6277
ag2
(S'318.0'
p6278
tp6279
Rp6280
ag2
(S'0.0'
p6281
tp6282
Rp6283
ag2
(S'0.0'
p6284
tp6285
Rp6286
ag2
(S'160.0'
p6287
tp6288
Rp6289
ag2
(S'0.0'
p6290
tp6291
Rp6292
ag2
(S'0.0'
p6293
tp6294
Rp6295
ag2
(S'1.0'
p6296
tp6297
Rp6298
ag2
(S'1.0'
p6299
tp6300
Rp6301
ag2
(S'3.0'
p6302
tp6303
Rp6304
ag2
(g42
tp6305
Rp6306
aa(lp6307
g2
(S'52.0'
p6308
tp6309
Rp6310
ag2
(S'1.0'
p6311
tp6312
Rp6313
ag2
(S'1.0'
p6314
tp6315
Rp6316
ag2
(S'152.0'
p6317
tp6318
Rp6319
ag2
(S'298.0'
p6320
tp6321
Rp6322
ag2
(S'1.0'
p6323
tp6324
Rp6325
ag2
(S'0.0'
p6326
tp6327
Rp6328
ag2
(S'178.0'
p6329
tp6330
Rp6331
ag2
(S'0.0'
p6332
tp6333
Rp6334
ag2
(S'1.2'
p6335
tp6336
Rp6337
ag2
(S'2.0'
p6338
tp6339
Rp6340
ag2
(S'0.0'
p6341
tp6342
Rp6343
ag2
(S'7.0'
p6344
tp6345
Rp6346
ag2
(g42
tp6347
Rp6348
aa(lp6349
g2
(S'42.0'
p6350
tp6351
Rp6352
ag2
(S'0.0'
p6353
tp6354
Rp6355
ag2
(S'4.0'
p6356
tp6357
Rp6358
ag2
(S'102.0'
p6359
tp6360
Rp6361
ag2
(S'265.0'
p6362
tp6363
Rp6364
ag2
(S'0.0'
p6365
tp6366
Rp6367
ag2
(S'2.0'
p6368
tp6369
Rp6370
ag2
(S'122.0'
p6371
tp6372
Rp6373
ag2
(S'0.0'
p6374
tp6375
Rp6376
ag2
(S'0.6'
p6377
tp6378
Rp6379
ag2
(S'2.0'
p6380
tp6381
Rp6382
ag2
(S'0.0'
p6383
tp6384
Rp6385
ag2
(S'3.0'
p6386
tp6387
Rp6388
ag2
(g42
tp6389
Rp6390
aa(lp6391
g2
(S'67.0'
p6392
tp6393
Rp6394
ag2
(S'0.0'
p6395
tp6396
Rp6397
ag2
(S'3.0'
p6398
tp6399
Rp6400
ag2
(S'115.0'
p6401
tp6402
Rp6403
ag2
(S'564.0'
p6404
tp6405
Rp6406
ag2
(S'0.0'
p6407
tp6408
Rp6409
ag2
(S'2.0'
p6410
tp6411
Rp6412
ag2
(S'160.0'
p6413
tp6414
Rp6415
ag2
(S'0.0'
p6416
tp6417
Rp6418
ag2
(S'1.6'
p6419
tp6420
Rp6421
ag2
(S'2.0'
p6422
tp6423
Rp6424
ag2
(S'0.0'
p6425
tp6426
Rp6427
ag2
(S'7.0'
p6428
tp6429
Rp6430
ag2
(g42
tp6431
Rp6432
aa(lp6433
g2
(S'55.0'
p6434
tp6435
Rp6436
ag2
(S'1.0'
p6437
tp6438
Rp6439
ag2
(S'4.0'
p6440
tp6441
Rp6442
ag2
(S'160.0'
p6443
tp6444
Rp6445
ag2
(S'289.0'
p6446
tp6447
Rp6448
ag2
(S'0.0'
p6449
tp6450
Rp6451
ag2
(S'2.0'
p6452
tp6453
Rp6454
ag2
(S'145.0'
p6455
tp6456
Rp6457
ag2
(S'1.0'
p6458
tp6459
Rp6460
ag2
(S'0.8'
p6461
tp6462
Rp6463
ag2
(S'2.0'
p6464
tp6465
Rp6466
ag2
(S'1.0'
p6467
tp6468
Rp6469
ag2
(S'7.0'
p6470
tp6471
Rp6472
ag2
(g1054
tp6473
Rp6474
aa(lp6475
g2
(S'64.0'
p6476
tp6477
Rp6478
ag2
(S'1.0'
p6479
tp6480
Rp6481
ag2
(S'4.0'
p6482
tp6483
Rp6484
ag2
(S'120.0'
p6485
tp6486
Rp6487
ag2
(S'246.0'
p6488
tp6489
Rp6490
ag2
(S'0.0'
p6491
tp6492
Rp6493
ag2
(S'2.0'
p6494
tp6495
Rp6496
ag2
(S'96.0'
p6497
tp6498
Rp6499
ag2
(S'1.0'
p6500
tp6501
Rp6502
ag2
(S'2.2'
p6503
tp6504
Rp6505
ag2
(S'3.0'
p6506
tp6507
Rp6508
ag2
(S'1.0'
p6509
tp6510
Rp6511
ag2
(S'3.0'
p6512
tp6513
Rp6514
ag2
(g297
tp6515
Rp6516
aa(lp6517
g2
(S'70.0'
p6518
tp6519
Rp6520
ag2
(S'1.0'
p6521
tp6522
Rp6523
ag2
(S'4.0'
p6524
tp6525
Rp6526
ag2
(S'130.0'
p6527
tp6528
Rp6529
ag2
(S'322.0'
p6530
tp6531
Rp6532
ag2
(S'0.0'
p6533
tp6534
Rp6535
ag2
(S'2.0'
p6536
tp6537
Rp6538
ag2
(S'109.0'
p6539
tp6540
Rp6541
ag2
(S'0.0'
p6542
tp6543
Rp6544
ag2
(S'2.4'
p6545
tp6546
Rp6547
ag2
(S'2.0'
p6548
tp6549
Rp6550
ag2
(S'3.0'
p6551
tp6552
Rp6553
ag2
(S'3.0'
p6554
tp6555
Rp6556
ag2
(g128
tp6557
Rp6558
aa(lp6559
g2
(S'51.0'
p6560
tp6561
Rp6562
ag2
(S'1.0'
p6563
tp6564
Rp6565
ag2
(S'4.0'
p6566
tp6567
Rp6568
ag2
(S'140.0'
p6569
tp6570
Rp6571
ag2
(S'299.0'
p6572
tp6573
Rp6574
ag2
(S'0.0'
p6575
tp6576
Rp6577
ag2
(S'0.0'
p6578
tp6579
Rp6580
ag2
(S'173.0'
p6581
tp6582
Rp6583
ag2
(S'1.0'
p6584
tp6585
Rp6586
ag2
(S'1.6'
p6587
tp6588
Rp6589
ag2
(S'1.0'
p6590
tp6591
Rp6592
ag2
(S'0.0'
p6593
tp6594
Rp6595
ag2
(S'7.0'
p6596
tp6597
Rp6598
ag2
(g128
tp6599
Rp6600
aa(lp6601
g2
(S'58.0'
p6602
tp6603
Rp6604
ag2
(S'1.0'
p6605
tp6606
Rp6607
ag2
(S'4.0'
p6608
tp6609
Rp6610
ag2
(S'125.0'
p6611
tp6612
Rp6613
ag2
(S'300.0'
p6614
tp6615
Rp6616
ag2
(S'0.0'
p6617
tp6618
Rp6619
ag2
(S'2.0'
p6620
tp6621
Rp6622
ag2
(S'171.0'
p6623
tp6624
Rp6625
ag2
(S'0.0'
p6626
tp6627
Rp6628
ag2
(S'0.0'
p6629
tp6630
Rp6631
ag2
(S'1.0'
p6632
tp6633
Rp6634
ag2
(S'2.0'
p6635
tp6636
Rp6637
ag2
(S'7.0'
p6638
tp6639
Rp6640
ag2
(g128
tp6641
Rp6642
aa(lp6643
g2
(S'60.0'
p6644
tp6645
Rp6646
ag2
(S'1.0'
p6647
tp6648
Rp6649
ag2
(S'4.0'
p6650
tp6651
Rp6652
ag2
(S'140.0'
p6653
tp6654
Rp6655
ag2
(S'293.0'
p6656
tp6657
Rp6658
ag2
(S'0.0'
p6659
tp6660
Rp6661
ag2
(S'2.0'
p6662
tp6663
Rp6664
ag2
(S'170.0'
p6665
tp6666
Rp6667
ag2
(S'0.0'
p6668
tp6669
Rp6670
ag2
(S'1.2'
p6671
tp6672
Rp6673
ag2
(S'2.0'
p6674
tp6675
Rp6676
ag2
(S'2.0'
p6677
tp6678
Rp6679
ag2
(S'7.0'
p6680
tp6681
Rp6682
ag2
(g85
tp6683
Rp6684
aa(lp6685
g2
(S'68.0'
p6686
tp6687
Rp6688
ag2
(S'1.0'
p6689
tp6690
Rp6691
ag2
(S'3.0'
p6692
tp6693
Rp6694
ag2
(S'118.0'
p6695
tp6696
Rp6697
ag2
(S'277.0'
p6698
tp6699
Rp6700
ag2
(S'0.0'
p6701
tp6702
Rp6703
ag2
(S'0.0'
p6704
tp6705
Rp6706
ag2
(S'151.0'
p6707
tp6708
Rp6709
ag2
(S'0.0'
p6710
tp6711
Rp6712
ag2
(S'1.0'
p6713
tp6714
Rp6715
ag2
(S'1.0'
p6716
tp6717
Rp6718
ag2
(S'1.0'
p6719
tp6720
Rp6721
ag2
(S'7.0'
p6722
tp6723
Rp6724
ag2
(g42
tp6725
Rp6726
aa(lp6727
g2
(S'46.0'
p6728
tp6729
Rp6730
ag2
(S'1.0'
p6731
tp6732
Rp6733
ag2
(S'2.0'
p6734
tp6735
Rp6736
ag2
(S'101.0'
p6737
tp6738
Rp6739
ag2
(S'197.0'
p6740
tp6741
Rp6742
ag2
(S'1.0'
p6743
tp6744
Rp6745
ag2
(S'0.0'
p6746
tp6747
Rp6748
ag2
(S'156.0'
p6749
tp6750
Rp6751
ag2
(S'0.0'
p6752
tp6753
Rp6754
ag2
(S'0.0'
p6755
tp6756
Rp6757
ag2
(S'1.0'
p6758
tp6759
Rp6760
ag2
(S'0.0'
p6761
tp6762
Rp6763
ag2
(S'7.0'
p6764
tp6765
Rp6766
ag2
(g42
tp6767
Rp6768
aa(lp6769
g2
(S'77.0'
p6770
tp6771
Rp6772
ag2
(S'1.0'
p6773
tp6774
Rp6775
ag2
(S'4.0'
p6776
tp6777
Rp6778
ag2
(S'125.0'
p6779
tp6780
Rp6781
ag2
(S'304.0'
p6782
tp6783
Rp6784
ag2
(S'0.0'
p6785
tp6786
Rp6787
ag2
(S'2.0'
p6788
tp6789
Rp6790
ag2
(S'162.0'
p6791
tp6792
Rp6793
ag2
(S'1.0'
p6794
tp6795
Rp6796
ag2
(S'0.0'
p6797
tp6798
Rp6799
ag2
(S'1.0'
p6800
tp6801
Rp6802
ag2
(S'3.0'
p6803
tp6804
Rp6805
ag2
(S'3.0'
p6806
tp6807
Rp6808
ag2
(g1054
tp6809
Rp6810
aa(lp6811
g2
(S'54.0'
p6812
tp6813
Rp6814
ag2
(S'0.0'
p6815
tp6816
Rp6817
ag2
(S'3.0'
p6818
tp6819
Rp6820
ag2
(S'110.0'
p6821
tp6822
Rp6823
ag2
(S'214.0'
p6824
tp6825
Rp6826
ag2
(S'0.0'
p6827
tp6828
Rp6829
ag2
(S'0.0'
p6830
tp6831
Rp6832
ag2
(S'158.0'
p6833
tp6834
Rp6835
ag2
(S'0.0'
p6836
tp6837
Rp6838
ag2
(S'1.6'
p6839
tp6840
Rp6841
ag2
(S'2.0'
p6842
tp6843
Rp6844
ag2
(S'0.0'
p6845
tp6846
Rp6847
ag2
(S'3.0'
p6848
tp6849
Rp6850
ag2
(g42
tp6851
Rp6852
aa(lp6853
g2
(S'58.0'
p6854
tp6855
Rp6856
ag2
(S'0.0'
p6857
tp6858
Rp6859
ag2
(S'4.0'
p6860
tp6861
Rp6862
ag2
(S'100.0'
p6863
tp6864
Rp6865
ag2
(S'248.0'
p6866
tp6867
Rp6868
ag2
(S'0.0'
p6869
tp6870
Rp6871
ag2
(S'2.0'
p6872
tp6873
Rp6874
ag2
(S'122.0'
p6875
tp6876
Rp6877
ag2
(S'0.0'
p6878
tp6879
Rp6880
ag2
(S'1.0'
p6881
tp6882
Rp6883
ag2
(S'2.0'
p6884
tp6885
Rp6886
ag2
(S'0.0'
p6887
tp6888
Rp6889
ag2
(S'3.0'
p6890
tp6891
Rp6892
ag2
(g42
tp6893
Rp6894
aa(lp6895
g2
(S'48.0'
p6896
tp6897
Rp6898
ag2
(S'1.0'
p6899
tp6900
Rp6901
ag2
(S'3.0'
p6902
tp6903
Rp6904
ag2
(S'124.0'
p6905
tp6906
Rp6907
ag2
(S'255.0'
p6908
tp6909
Rp6910
ag2
(S'1.0'
p6911
tp6912
Rp6913
ag2
(S'0.0'
p6914
tp6915
Rp6916
ag2
(S'175.0'
p6917
tp6918
Rp6919
ag2
(S'0.0'
p6920
tp6921
Rp6922
ag2
(S'0.0'
p6923
tp6924
Rp6925
ag2
(S'1.0'
p6926
tp6927
Rp6928
ag2
(S'2.0'
p6929
tp6930
Rp6931
ag2
(S'3.0'
p6932
tp6933
Rp6934
ag2
(g42
tp6935
Rp6936
aa(lp6937
g2
(S'57.0'
p6938
tp6939
Rp6940
ag2
(S'1.0'
p6941
tp6942
Rp6943
ag2
(S'4.0'
p6944
tp6945
Rp6946
ag2
(S'132.0'
p6947
tp6948
Rp6949
ag2
(S'207.0'
p6950
tp6951
Rp6952
ag2
(S'0.0'
p6953
tp6954
Rp6955
ag2
(S'0.0'
p6956
tp6957
Rp6958
ag2
(S'168.0'
p6959
tp6960
Rp6961
ag2
(S'1.0'
p6962
tp6963
Rp6964
ag2
(S'0.0'
p6965
tp6966
Rp6967
ag2
(S'1.0'
p6968
tp6969
Rp6970
ag2
(S'0.0'
p6971
tp6972
Rp6973
ag2
(S'7.0'
p6974
tp6975
Rp6976
ag2
(g42
tp6977
Rp6978
aa(lp6979
g2
(S'52.0'
p6980
tp6981
Rp6982
ag2
(S'1.0'
p6983
tp6984
Rp6985
ag2
(S'3.0'
p6986
tp6987
Rp6988
ag2
(S'138.0'
p6989
tp6990
Rp6991
ag2
(S'223.0'
p6992
tp6993
Rp6994
ag2
(S'0.0'
p6995
tp6996
Rp6997
ag2
(S'0.0'
p6998
tp6999
Rp7000
ag2
(S'169.0'
p7001
tp7002
Rp7003
ag2
(S'0.0'
p7004
tp7005
Rp7006
ag2
(S'0.0'
p7007
tp7008
Rp7009
ag2
(S'1.0'
p7010
tp7011
Rp7012
ag2
(S'0.0'
p7013
tp7014
Rp7015
ag2
(S'3.0'
p7016
tp7017
Rp7018
ag2
(g42
tp7019
Rp7020
aa(lp7021
g2
(S'54.0'
p7022
tp7023
Rp7024
ag2
(S'0.0'
p7025
tp7026
Rp7027
ag2
(S'2.0'
p7028
tp7029
Rp7030
ag2
(S'132.0'
p7031
tp7032
Rp7033
ag2
(S'288.0'
p7034
tp7035
Rp7036
ag2
(S'1.0'
p7037
tp7038
Rp7039
ag2
(S'2.0'
p7040
tp7041
Rp7042
ag2
(S'159.0'
p7043
tp7044
Rp7045
ag2
(S'1.0'
p7046
tp7047
Rp7048
ag2
(S'0.0'
p7049
tp7050
Rp7051
ag2
(S'1.0'
p7052
tp7053
Rp7054
ag2
(S'1.0'
p7055
tp7056
Rp7057
ag2
(S'3.0'
p7058
tp7059
Rp7060
ag2
(g42
tp7061
Rp7062
aa(lp7063
g2
(S'35.0'
p7064
tp7065
Rp7066
ag2
(S'1.0'
p7067
tp7068
Rp7069
ag2
(S'4.0'
p7070
tp7071
Rp7072
ag2
(S'126.0'
p7073
tp7074
Rp7075
ag2
(S'282.0'
p7076
tp7077
Rp7078
ag2
(S'0.0'
p7079
tp7080
Rp7081
ag2
(S'2.0'
p7082
tp7083
Rp7084
ag2
(S'156.0'
p7085
tp7086
Rp7087
ag2
(S'1.0'
p7088
tp7089
Rp7090
ag2
(S'0.0'
p7091
tp7092
Rp7093
ag2
(S'1.0'
p7094
tp7095
Rp7096
ag2
(S'0.0'
p7097
tp7098
Rp7099
ag2
(S'7.0'
p7100
tp7101
Rp7102
ag2
(g128
tp7103
Rp7104
aa(lp7105
g2
(S'45.0'
p7106
tp7107
Rp7108
ag2
(S'0.0'
p7109
tp7110
Rp7111
ag2
(S'2.0'
p7112
tp7113
Rp7114
ag2
(S'112.0'
p7115
tp7116
Rp7117
ag2
(S'160.0'
p7118
tp7119
Rp7120
ag2
(S'0.0'
p7121
tp7122
Rp7123
ag2
(S'0.0'
p7124
tp7125
Rp7126
ag2
(S'138.0'
p7127
tp7128
Rp7129
ag2
(S'0.0'
p7130
tp7131
Rp7132
ag2
(S'0.0'
p7133
tp7134
Rp7135
ag2
(S'2.0'
p7136
tp7137
Rp7138
ag2
(S'0.0'
p7139
tp7140
Rp7141
ag2
(S'3.0'
p7142
tp7143
Rp7144
ag2
(g42
tp7145
Rp7146
aa(lp7147
g2
(S'70.0'
p7148
tp7149
Rp7150
ag2
(S'1.0'
p7151
tp7152
Rp7153
ag2
(S'3.0'
p7154
tp7155
Rp7156
ag2
(S'160.0'
p7157
tp7158
Rp7159
ag2
(S'269.0'
p7160
tp7161
Rp7162
ag2
(S'0.0'
p7163
tp7164
Rp7165
ag2
(S'0.0'
p7166
tp7167
Rp7168
ag2
(S'112.0'
p7169
tp7170
Rp7171
ag2
(S'1.0'
p7172
tp7173
Rp7174
ag2
(S'2.9'
p7175
tp7176
Rp7177
ag2
(S'2.0'
p7178
tp7179
Rp7180
ag2
(S'1.0'
p7181
tp7182
Rp7183
ag2
(S'7.0'
p7184
tp7185
Rp7186
ag2
(g297
tp7187
Rp7188
aa(lp7189
g2
(S'53.0'
p7190
tp7191
Rp7192
ag2
(S'1.0'
p7193
tp7194
Rp7195
ag2
(S'4.0'
p7196
tp7197
Rp7198
ag2
(S'142.0'
p7199
tp7200
Rp7201
ag2
(S'226.0'
p7202
tp7203
Rp7204
ag2
(S'0.0'
p7205
tp7206
Rp7207
ag2
(S'2.0'
p7208
tp7209
Rp7210
ag2
(S'111.0'
p7211
tp7212
Rp7213
ag2
(S'1.0'
p7214
tp7215
Rp7216
ag2
(S'0.0'
p7217
tp7218
Rp7219
ag2
(S'1.0'
p7220
tp7221
Rp7222
ag2
(S'0.0'
p7223
tp7224
Rp7225
ag2
(S'7.0'
p7226
tp7227
Rp7228
ag2
(g42
tp7229
Rp7230
aa(lp7231
g2
(S'59.0'
p7232
tp7233
Rp7234
ag2
(S'0.0'
p7235
tp7236
Rp7237
ag2
(S'4.0'
p7238
tp7239
Rp7240
ag2
(S'174.0'
p7241
tp7242
Rp7243
ag2
(S'249.0'
p7244
tp7245
Rp7246
ag2
(S'0.0'
p7247
tp7248
Rp7249
ag2
(S'0.0'
p7250
tp7251
Rp7252
ag2
(S'143.0'
p7253
tp7254
Rp7255
ag2
(S'1.0'
p7256
tp7257
Rp7258
ag2
(S'0.0'
p7259
tp7260
Rp7261
ag2
(S'2.0'
p7262
tp7263
Rp7264
ag2
(S'0.0'
p7265
tp7266
Rp7267
ag2
(S'3.0'
p7268
tp7269
Rp7270
ag2
(g128
tp7271
Rp7272
aa(lp7273
g2
(S'62.0'
p7274
tp7275
Rp7276
ag2
(S'0.0'
p7277
tp7278
Rp7279
ag2
(S'4.0'
p7280
tp7281
Rp7282
ag2
(S'140.0'
p7283
tp7284
Rp7285
ag2
(S'394.0'
p7286
tp7287
Rp7288
ag2
(S'0.0'
p7289
tp7290
Rp7291
ag2
(S'2.0'
p7292
tp7293
Rp7294
ag2
(S'157.0'
p7295
tp7296
Rp7297
ag2
(S'0.0'
p7298
tp7299
Rp7300
ag2
(S'1.2'
p7301
tp7302
Rp7303
ag2
(S'2.0'
p7304
tp7305
Rp7306
ag2
(S'0.0'
p7307
tp7308
Rp7309
ag2
(S'3.0'
p7310
tp7311
Rp7312
ag2
(g42
tp7313
Rp7314
aa(lp7315
g2
(S'64.0'
p7316
tp7317
Rp7318
ag2
(S'1.0'
p7319
tp7320
Rp7321
ag2
(S'4.0'
p7322
tp7323
Rp7324
ag2
(S'145.0'
p7325
tp7326
Rp7327
ag2
(S'212.0'
p7328
tp7329
Rp7330
ag2
(S'0.0'
p7331
tp7332
Rp7333
ag2
(S'2.0'
p7334
tp7335
Rp7336
ag2
(S'132.0'
p7337
tp7338
Rp7339
ag2
(S'0.0'
p7340
tp7341
Rp7342
ag2
(S'2.0'
p7343
tp7344
Rp7345
ag2
(S'2.0'
p7346
tp7347
Rp7348
ag2
(S'2.0'
p7349
tp7350
Rp7351
ag2
(S'6.0'
p7352
tp7353
Rp7354
ag2
(g1054
tp7355
Rp7356
aa(lp7357
g2
(S'57.0'
p7358
tp7359
Rp7360
ag2
(S'1.0'
p7361
tp7362
Rp7363
ag2
(S'4.0'
p7364
tp7365
Rp7366
ag2
(S'152.0'
p7367
tp7368
Rp7369
ag2
(S'274.0'
p7370
tp7371
Rp7372
ag2
(S'0.0'
p7373
tp7374
Rp7375
ag2
(S'0.0'
p7376
tp7377
Rp7378
ag2
(S'88.0'
p7379
tp7380
Rp7381
ag2
(S'1.0'
p7382
tp7383
Rp7384
ag2
(S'1.2'
p7385
tp7386
Rp7387
ag2
(S'2.0'
p7388
tp7389
Rp7390
ag2
(S'1.0'
p7391
tp7392
Rp7393
ag2
(S'7.0'
p7394
tp7395
Rp7396
ag2
(g128
tp7397
Rp7398
aa(lp7399
g2
(S'52.0'
p7400
tp7401
Rp7402
ag2
(S'1.0'
p7403
tp7404
Rp7405
ag2
(S'4.0'
p7406
tp7407
Rp7408
ag2
(S'108.0'
p7409
tp7410
Rp7411
ag2
(S'233.0'
p7412
tp7413
Rp7414
ag2
(S'1.0'
p7415
tp7416
Rp7417
ag2
(S'0.0'
p7418
tp7419
Rp7420
ag2
(S'147.0'
p7421
tp7422
Rp7423
ag2
(S'0.0'
p7424
tp7425
Rp7426
ag2
(S'0.1'
p7427
tp7428
Rp7429
ag2
(S'1.0'
p7430
tp7431
Rp7432
ag2
(S'3.0'
p7433
tp7434
Rp7435
ag2
(S'7.0'
p7436
tp7437
Rp7438
ag2
(g42
tp7439
Rp7440
aa(lp7441
g2
(S'56.0'
p7442
tp7443
Rp7444
ag2
(S'1.0'
p7445
tp7446
Rp7447
ag2
(S'4.0'
p7448
tp7449
Rp7450
ag2
(S'132.0'
p7451
tp7452
Rp7453
ag2
(S'184.0'
p7454
tp7455
Rp7456
ag2
(S'0.0'
p7457
tp7458
Rp7459
ag2
(S'2.0'
p7460
tp7461
Rp7462
ag2
(S'105.0'
p7463
tp7464
Rp7465
ag2
(S'1.0'
p7466
tp7467
Rp7468
ag2
(S'2.1'
p7469
tp7470
Rp7471
ag2
(S'2.0'
p7472
tp7473
Rp7474
ag2
(S'1.0'
p7475
tp7476
Rp7477
ag2
(S'6.0'
p7478
tp7479
Rp7480
ag2
(g128
tp7481
Rp7482
aa(lp7483
g2
(S'43.0'
p7484
tp7485
Rp7486
ag2
(S'1.0'
p7487
tp7488
Rp7489
ag2
(S'3.0'
p7490
tp7491
Rp7492
ag2
(S'130.0'
p7493
tp7494
Rp7495
ag2
(S'315.0'
p7496
tp7497
Rp7498
ag2
(S'0.0'
p7499
tp7500
Rp7501
ag2
(S'0.0'
p7502
tp7503
Rp7504
ag2
(S'162.0'
p7505
tp7506
Rp7507
ag2
(S'0.0'
p7508
tp7509
Rp7510
ag2
(S'1.9'
p7511
tp7512
Rp7513
ag2
(S'1.0'
p7514
tp7515
Rp7516
ag2
(S'1.0'
p7517
tp7518
Rp7519
ag2
(S'3.0'
p7520
tp7521
Rp7522
ag2
(g42
tp7523
Rp7524
aa(lp7525
g2
(S'53.0'
p7526
tp7527
Rp7528
ag2
(S'1.0'
p7529
tp7530
Rp7531
ag2
(S'3.0'
p7532
tp7533
Rp7534
ag2
(S'130.0'
p7535
tp7536
Rp7537
ag2
(S'246.0'
p7538
tp7539
Rp7540
ag2
(S'1.0'
p7541
tp7542
Rp7543
ag2
(S'2.0'
p7544
tp7545
Rp7546
ag2
(S'173.0'
p7547
tp7548
Rp7549
ag2
(S'0.0'
p7550
tp7551
Rp7552
ag2
(S'0.0'
p7553
tp7554
Rp7555
ag2
(S'1.0'
p7556
tp7557
Rp7558
ag2
(S'3.0'
p7559
tp7560
Rp7561
ag2
(S'3.0'
p7562
tp7563
Rp7564
ag2
(g42
tp7565
Rp7566
aa(lp7567
g2
(S'48.0'
p7568
tp7569
Rp7570
ag2
(S'1.0'
p7571
tp7572
Rp7573
ag2
(S'4.0'
p7574
tp7575
Rp7576
ag2
(S'124.0'
p7577
tp7578
Rp7579
ag2
(S'274.0'
p7580
tp7581
Rp7582
ag2
(S'0.0'
p7583
tp7584
Rp7585
ag2
(S'2.0'
p7586
tp7587
Rp7588
ag2
(S'166.0'
p7589
tp7590
Rp7591
ag2
(S'0.0'
p7592
tp7593
Rp7594
ag2
(S'0.5'
p7595
tp7596
Rp7597
ag2
(S'2.0'
p7598
tp7599
Rp7600
ag2
(S'0.0'
p7601
tp7602
Rp7603
ag2
(S'7.0'
p7604
tp7605
Rp7606
ag2
(g297
tp7607
Rp7608
aa(lp7609
g2
(S'56.0'
p7610
tp7611
Rp7612
ag2
(S'0.0'
p7613
tp7614
Rp7615
ag2
(S'4.0'
p7616
tp7617
Rp7618
ag2
(S'134.0'
p7619
tp7620
Rp7621
ag2
(S'409.0'
p7622
tp7623
Rp7624
ag2
(S'0.0'
p7625
tp7626
Rp7627
ag2
(S'2.0'
p7628
tp7629
Rp7630
ag2
(S'150.0'
p7631
tp7632
Rp7633
ag2
(S'1.0'
p7634
tp7635
Rp7636
ag2
(S'1.9'
p7637
tp7638
Rp7639
ag2
(S'2.0'
p7640
tp7641
Rp7642
ag2
(S'2.0'
p7643
tp7644
Rp7645
ag2
(S'7.0'
p7646
tp7647
Rp7648
ag2
(g85
tp7649
Rp7650
aa(lp7651
g2
(S'42.0'
p7652
tp7653
Rp7654
ag2
(S'1.0'
p7655
tp7656
Rp7657
ag2
(S'1.0'
p7658
tp7659
Rp7660
ag2
(S'148.0'
p7661
tp7662
Rp7663
ag2
(S'244.0'
p7664
tp7665
Rp7666
ag2
(S'0.0'
p7667
tp7668
Rp7669
ag2
(S'2.0'
p7670
tp7671
Rp7672
ag2
(S'178.0'
p7673
tp7674
Rp7675
ag2
(S'0.0'
p7676
tp7677
Rp7678
ag2
(S'0.8'
p7679
tp7680
Rp7681
ag2
(S'1.0'
p7682
tp7683
Rp7684
ag2
(S'2.0'
p7685
tp7686
Rp7687
ag2
(S'3.0'
p7688
tp7689
Rp7690
ag2
(g42
tp7691
Rp7692
aa(lp7693
g2
(S'59.0'
p7694
tp7695
Rp7696
ag2
(S'1.0'
p7697
tp7698
Rp7699
ag2
(S'1.0'
p7700
tp7701
Rp7702
ag2
(S'178.0'
p7703
tp7704
Rp7705
ag2
(S'270.0'
p7706
tp7707
Rp7708
ag2
(S'0.0'
p7709
tp7710
Rp7711
ag2
(S'2.0'
p7712
tp7713
Rp7714
ag2
(S'145.0'
p7715
tp7716
Rp7717
ag2
(S'0.0'
p7718
tp7719
Rp7720
ag2
(S'4.2'
p7721
tp7722
Rp7723
ag2
(S'3.0'
p7724
tp7725
Rp7726
ag2
(S'0.0'
p7727
tp7728
Rp7729
ag2
(S'7.0'
p7730
tp7731
Rp7732
ag2
(g42
tp7733
Rp7734
aa(lp7735
g2
(S'60.0'
p7736
tp7737
Rp7738
ag2
(S'0.0'
p7739
tp7740
Rp7741
ag2
(S'4.0'
p7742
tp7743
Rp7744
ag2
(S'158.0'
p7745
tp7746
Rp7747
ag2
(S'305.0'
p7748
tp7749
Rp7750
ag2
(S'0.0'
p7751
tp7752
Rp7753
ag2
(S'2.0'
p7754
tp7755
Rp7756
ag2
(S'161.0'
p7757
tp7758
Rp7759
ag2
(S'0.0'
p7760
tp7761
Rp7762
ag2
(S'0.0'
p7763
tp7764
Rp7765
ag2
(S'1.0'
p7766
tp7767
Rp7768
ag2
(S'0.0'
p7769
tp7770
Rp7771
ag2
(S'3.0'
p7772
tp7773
Rp7774
ag2
(g128
tp7775
Rp7776
aa(lp7777
g2
(S'63.0'
p7778
tp7779
Rp7780
ag2
(S'0.0'
p7781
tp7782
Rp7783
ag2
(S'2.0'
p7784
tp7785
Rp7786
ag2
(S'140.0'
p7787
tp7788
Rp7789
ag2
(S'195.0'
p7790
tp7791
Rp7792
ag2
(S'0.0'
p7793
tp7794
Rp7795
ag2
(S'0.0'
p7796
tp7797
Rp7798
ag2
(S'179.0'
p7799
tp7800
Rp7801
ag2
(S'0.0'
p7802
tp7803
Rp7804
ag2
(S'0.0'
p7805
tp7806
Rp7807
ag2
(S'1.0'
p7808
tp7809
Rp7810
ag2
(S'2.0'
p7811
tp7812
Rp7813
ag2
(S'3.0'
p7814
tp7815
Rp7816
ag2
(g42
tp7817
Rp7818
aa(lp7819
g2
(S'42.0'
p7820
tp7821
Rp7822
ag2
(S'1.0'
p7823
tp7824
Rp7825
ag2
(S'3.0'
p7826
tp7827
Rp7828
ag2
(S'120.0'
p7829
tp7830
Rp7831
ag2
(S'240.0'
p7832
tp7833
Rp7834
ag2
(S'1.0'
p7835
tp7836
Rp7837
ag2
(S'0.0'
p7838
tp7839
Rp7840
ag2
(S'194.0'
p7841
tp7842
Rp7843
ag2
(S'0.0'
p7844
tp7845
Rp7846
ag2
(S'0.8'
p7847
tp7848
Rp7849
ag2
(S'3.0'
p7850
tp7851
Rp7852
ag2
(S'0.0'
p7853
tp7854
Rp7855
ag2
(S'7.0'
p7856
tp7857
Rp7858
ag2
(g42
tp7859
Rp7860
aa(lp7861
g2
(S'66.0'
p7862
tp7863
Rp7864
ag2
(S'1.0'
p7865
tp7866
Rp7867
ag2
(S'2.0'
p7868
tp7869
Rp7870
ag2
(S'160.0'
p7871
tp7872
Rp7873
ag2
(S'246.0'
p7874
tp7875
Rp7876
ag2
(S'0.0'
p7877
tp7878
Rp7879
ag2
(S'0.0'
p7880
tp7881
Rp7882
ag2
(S'120.0'
p7883
tp7884
Rp7885
ag2
(S'1.0'
p7886
tp7887
Rp7888
ag2
(S'0.0'
p7889
tp7890
Rp7891
ag2
(S'2.0'
p7892
tp7893
Rp7894
ag2
(S'3.0'
p7895
tp7896
Rp7897
ag2
(S'6.0'
p7898
tp7899
Rp7900
ag2
(g85
tp7901
Rp7902
aa(lp7903
g2
(S'54.0'
p7904
tp7905
Rp7906
ag2
(S'1.0'
p7907
tp7908
Rp7909
ag2
(S'2.0'
p7910
tp7911
Rp7912
ag2
(S'192.0'
p7913
tp7914
Rp7915
ag2
(S'283.0'
p7916
tp7917
Rp7918
ag2
(S'0.0'
p7919
tp7920
Rp7921
ag2
(S'2.0'
p7922
tp7923
Rp7924
ag2
(S'195.0'
p7925
tp7926
Rp7927
ag2
(S'0.0'
p7928
tp7929
Rp7930
ag2
(S'0.0'
p7931
tp7932
Rp7933
ag2
(S'1.0'
p7934
tp7935
Rp7936
ag2
(S'1.0'
p7937
tp7938
Rp7939
ag2
(S'7.0'
p7940
tp7941
Rp7942
ag2
(g128
tp7943
Rp7944
aa(lp7945
g2
(S'69.0'
p7946
tp7947
Rp7948
ag2
(S'1.0'
p7949
tp7950
Rp7951
ag2
(S'3.0'
p7952
tp7953
Rp7954
ag2
(S'140.0'
p7955
tp7956
Rp7957
ag2
(S'254.0'
p7958
tp7959
Rp7960
ag2
(S'0.0'
p7961
tp7962
Rp7963
ag2
(S'2.0'
p7964
tp7965
Rp7966
ag2
(S'146.0'
p7967
tp7968
Rp7969
ag2
(S'0.0'
p7970
tp7971
Rp7972
ag2
(S'2.0'
p7973
tp7974
Rp7975
ag2
(S'2.0'
p7976
tp7977
Rp7978
ag2
(S'3.0'
p7979
tp7980
Rp7981
ag2
(S'7.0'
p7982
tp7983
Rp7984
ag2
(g85
tp7985
Rp7986
aa(lp7987
g2
(S'50.0'
p7988
tp7989
Rp7990
ag2
(S'1.0'
p7991
tp7992
Rp7993
ag2
(S'3.0'
p7994
tp7995
Rp7996
ag2
(S'129.0'
p7997
tp7998
Rp7999
ag2
(S'196.0'
p8000
tp8001
Rp8002
ag2
(S'0.0'
p8003
tp8004
Rp8005
ag2
(S'0.0'
p8006
tp8007
Rp8008
ag2
(S'163.0'
p8009
tp8010
Rp8011
ag2
(S'0.0'
p8012
tp8013
Rp8014
ag2
(S'0.0'
p8015
tp8016
Rp8017
ag2
(S'1.0'
p8018
tp8019
Rp8020
ag2
(S'0.0'
p8021
tp8022
Rp8023
ag2
(S'3.0'
p8024
tp8025
Rp8026
ag2
(g42
tp8027
Rp8028
aa(lp8029
g2
(S'51.0'
p8030
tp8031
Rp8032
ag2
(S'1.0'
p8033
tp8034
Rp8035
ag2
(S'4.0'
p8036
tp8037
Rp8038
ag2
(S'140.0'
p8039
tp8040
Rp8041
ag2
(S'298.0'
p8042
tp8043
Rp8044
ag2
(S'0.0'
p8045
tp8046
Rp8047
ag2
(S'0.0'
p8048
tp8049
Rp8050
ag2
(S'122.0'
p8051
tp8052
Rp8053
ag2
(S'1.0'
p8054
tp8055
Rp8056
ag2
(S'4.2'
p8057
tp8058
Rp8059
ag2
(S'2.0'
p8060
tp8061
Rp8062
ag2
(S'3.0'
p8063
tp8064
Rp8065
ag2
(S'7.0'
p8066
tp8067
Rp8068
ag2
(g297
tp8069
Rp8070
aa(lp8071
g2
(S'43.0'
p8072
tp8073
Rp8074
ag2
(S'1.0'
p8075
tp8076
Rp8077
ag2
(S'4.0'
p8078
tp8079
Rp8080
ag2
(S'132.0'
p8081
tp8082
Rp8083
ag2
(S'247.0'
p8084
tp8085
Rp8086
ag2
(S'1.0'
p8087
tp8088
Rp8089
ag2
(S'2.0'
p8090
tp8091
Rp8092
ag2
(S'143.0'
p8093
tp8094
Rp8095
ag2
(S'1.0'
p8096
tp8097
Rp8098
ag2
(S'0.1'
p8099
tp8100
Rp8101
ag2
(S'2.0'
p8102
tp8103
Rp8104
ag2
(S'0.0'
p8105
tp8106
Rp8107
ag2
(S'7.0'
p8108
tp8109
Rp8110
ag2
(g128
tp8111
Rp8112
aa(lp8113
g2
(S'62.0'
p8114
tp8115
Rp8116
ag2
(S'0.0'
p8117
tp8118
Rp8119
ag2
(S'4.0'
p8120
tp8121
Rp8122
ag2
(S'138.0'
p8123
tp8124
Rp8125
ag2
(S'294.0'
p8126
tp8127
Rp8128
ag2
(S'1.0'
p8129
tp8130
Rp8131
ag2
(S'0.0'
p8132
tp8133
Rp8134
ag2
(S'106.0'
p8135
tp8136
Rp8137
ag2
(S'0.0'
p8138
tp8139
Rp8140
ag2
(S'1.9'
p8141
tp8142
Rp8143
ag2
(S'2.0'
p8144
tp8145
Rp8146
ag2
(S'3.0'
p8147
tp8148
Rp8149
ag2
(S'3.0'
p8150
tp8151
Rp8152
ag2
(g85
tp8153
Rp8154
aa(lp8155
g2
(S'68.0'
p8156
tp8157
Rp8158
ag2
(S'0.0'
p8159
tp8160
Rp8161
ag2
(S'3.0'
p8162
tp8163
Rp8164
ag2
(S'120.0'
p8165
tp8166
Rp8167
ag2
(S'211.0'
p8168
tp8169
Rp8170
ag2
(S'0.0'
p8171
tp8172
Rp8173
ag2
(S'2.0'
p8174
tp8175
Rp8176
ag2
(S'115.0'
p8177
tp8178
Rp8179
ag2
(S'0.0'
p8180
tp8181
Rp8182
ag2
(S'1.5'
p8183
tp8184
Rp8185
ag2
(S'2.0'
p8186
tp8187
Rp8188
ag2
(S'0.0'
p8189
tp8190
Rp8191
ag2
(S'3.0'
p8192
tp8193
Rp8194
ag2
(g42
tp8195
Rp8196
aa(lp8197
g2
(S'67.0'
p8198
tp8199
Rp8200
ag2
(S'1.0'
p8201
tp8202
Rp8203
ag2
(S'4.0'
p8204
tp8205
Rp8206
ag2
(S'100.0'
p8207
tp8208
Rp8209
ag2
(S'299.0'
p8210
tp8211
Rp8212
ag2
(S'0.0'
p8213
tp8214
Rp8215
ag2
(S'2.0'
p8216
tp8217
Rp8218
ag2
(S'125.0'
p8219
tp8220
Rp8221
ag2
(S'1.0'
p8222
tp8223
Rp8224
ag2
(S'0.9'
p8225
tp8226
Rp8227
ag2
(S'2.0'
p8228
tp8229
Rp8230
ag2
(S'2.0'
p8231
tp8232
Rp8233
ag2
(S'3.0'
p8234
tp8235
Rp8236
ag2
(g297
tp8237
Rp8238
aa(lp8239
g2
(S'69.0'
p8240
tp8241
Rp8242
ag2
(S'1.0'
p8243
tp8244
Rp8245
ag2
(S'1.0'
p8246
tp8247
Rp8248
ag2
(S'160.0'
p8249
tp8250
Rp8251
ag2
(S'234.0'
p8252
tp8253
Rp8254
ag2
(S'1.0'
p8255
tp8256
Rp8257
ag2
(S'2.0'
p8258
tp8259
Rp8260
ag2
(S'131.0'
p8261
tp8262
Rp8263
ag2
(S'0.0'
p8264
tp8265
Rp8266
ag2
(S'0.1'
p8267
tp8268
Rp8269
ag2
(S'2.0'
p8270
tp8271
Rp8272
ag2
(S'1.0'
p8273
tp8274
Rp8275
ag2
(S'3.0'
p8276
tp8277
Rp8278
ag2
(g42
tp8279
Rp8280
aa(lp8281
g2
(S'45.0'
p8282
tp8283
Rp8284
ag2
(S'0.0'
p8285
tp8286
Rp8287
ag2
(S'4.0'
p8288
tp8289
Rp8290
ag2
(S'138.0'
p8291
tp8292
Rp8293
ag2
(S'236.0'
p8294
tp8295
Rp8296
ag2
(S'0.0'
p8297
tp8298
Rp8299
ag2
(S'2.0'
p8300
tp8301
Rp8302
ag2
(S'152.0'
p8303
tp8304
Rp8305
ag2
(S'1.0'
p8306
tp8307
Rp8308
ag2
(S'0.2'
p8309
tp8310
Rp8311
ag2
(S'2.0'
p8312
tp8313
Rp8314
ag2
(S'0.0'
p8315
tp8316
Rp8317
ag2
(S'3.0'
p8318
tp8319
Rp8320
ag2
(g42
tp8321
Rp8322
aa(lp8323
g2
(S'50.0'
p8324
tp8325
Rp8326
ag2
(S'0.0'
p8327
tp8328
Rp8329
ag2
(S'2.0'
p8330
tp8331
Rp8332
ag2
(S'120.0'
p8333
tp8334
Rp8335
ag2
(S'244.0'
p8336
tp8337
Rp8338
ag2
(S'0.0'
p8339
tp8340
Rp8341
ag2
(S'0.0'
p8342
tp8343
Rp8344
ag2
(S'162.0'
p8345
tp8346
Rp8347
ag2
(S'0.0'
p8348
tp8349
Rp8350
ag2
(S'1.1'
p8351
tp8352
Rp8353
ag2
(S'1.0'
p8354
tp8355
Rp8356
ag2
(S'0.0'
p8357
tp8358
Rp8359
ag2
(S'3.0'
p8360
tp8361
Rp8362
ag2
(g42
tp8363
Rp8364
aa(lp8365
g2
(S'59.0'
p8366
tp8367
Rp8368
ag2
(S'1.0'
p8369
tp8370
Rp8371
ag2
(S'1.0'
p8372
tp8373
Rp8374
ag2
(S'160.0'
p8375
tp8376
Rp8377
ag2
(S'273.0'
p8378
tp8379
Rp8380
ag2
(S'0.0'
p8381
tp8382
Rp8383
ag2
(S'2.0'
p8384
tp8385
Rp8386
ag2
(S'125.0'
p8387
tp8388
Rp8389
ag2
(S'0.0'
p8390
tp8391
Rp8392
ag2
(S'0.0'
p8393
tp8394
Rp8395
ag2
(S'1.0'
p8396
tp8397
Rp8398
ag2
(S'0.0'
p8399
tp8400
Rp8401
ag2
(S'3.0'
p8402
tp8403
Rp8404
ag2
(g128
tp8405
Rp8406
aa(lp8407
g2
(S'50.0'
p8408
tp8409
Rp8410
ag2
(S'0.0'
p8411
tp8412
Rp8413
ag2
(S'4.0'
p8414
tp8415
Rp8416
ag2
(S'110.0'
p8417
tp8418
Rp8419
ag2
(S'254.0'
p8420
tp8421
Rp8422
ag2
(S'0.0'
p8423
tp8424
Rp8425
ag2
(S'2.0'
p8426
tp8427
Rp8428
ag2
(S'159.0'
p8429
tp8430
Rp8431
ag2
(S'0.0'
p8432
tp8433
Rp8434
ag2
(S'0.0'
p8435
tp8436
Rp8437
ag2
(S'1.0'
p8438
tp8439
Rp8440
ag2
(S'0.0'
p8441
tp8442
Rp8443
ag2
(S'3.0'
p8444
tp8445
Rp8446
ag2
(g42
tp8447
Rp8448
aa(lp8449
g2
(S'64.0'
p8450
tp8451
Rp8452
ag2
(S'0.0'
p8453
tp8454
Rp8455
ag2
(S'4.0'
p8456
tp8457
Rp8458
ag2
(S'180.0'
p8459
tp8460
Rp8461
ag2
(S'325.0'
p8462
tp8463
Rp8464
ag2
(S'0.0'
p8465
tp8466
Rp8467
ag2
(S'0.0'
p8468
tp8469
Rp8470
ag2
(S'154.0'
p8471
tp8472
Rp8473
ag2
(S'1.0'
p8474
tp8475
Rp8476
ag2
(S'0.0'
p8477
tp8478
Rp8479
ag2
(S'1.0'
p8480
tp8481
Rp8482
ag2
(S'0.0'
p8483
tp8484
Rp8485
ag2
(S'3.0'
p8486
tp8487
Rp8488
ag2
(g42
tp8489
Rp8490
aa(lp8491
g2
(S'57.0'
p8492
tp8493
Rp8494
ag2
(S'1.0'
p8495
tp8496
Rp8497
ag2
(S'3.0'
p8498
tp8499
Rp8500
ag2
(S'150.0'
p8501
tp8502
Rp8503
ag2
(S'126.0'
p8504
tp8505
Rp8506
ag2
(S'1.0'
p8507
tp8508
Rp8509
ag2
(S'0.0'
p8510
tp8511
Rp8512
ag2
(S'173.0'
p8513
tp8514
Rp8515
ag2
(S'0.0'
p8516
tp8517
Rp8518
ag2
(S'0.2'
p8519
tp8520
Rp8521
ag2
(S'1.0'
p8522
tp8523
Rp8524
ag2
(S'1.0'
p8525
tp8526
Rp8527
ag2
(S'7.0'
p8528
tp8529
Rp8530
ag2
(g42
tp8531
Rp8532
aa(lp8533
g2
(S'64.0'
p8534
tp8535
Rp8536
ag2
(S'0.0'
p8537
tp8538
Rp8539
ag2
(S'3.0'
p8540
tp8541
Rp8542
ag2
(S'140.0'
p8543
tp8544
Rp8545
ag2
(S'313.0'
p8546
tp8547
Rp8548
ag2
(S'0.0'
p8549
tp8550
Rp8551
ag2
(S'0.0'
p8552
tp8553
Rp8554
ag2
(S'133.0'
p8555
tp8556
Rp8557
ag2
(S'0.0'
p8558
tp8559
Rp8560
ag2
(S'0.2'
p8561
tp8562
Rp8563
ag2
(S'1.0'
p8564
tp8565
Rp8566
ag2
(S'0.0'
p8567
tp8568
Rp8569
ag2
(S'7.0'
p8570
tp8571
Rp8572
ag2
(g42
tp8573
Rp8574
aa(lp8575
g2
(S'43.0'
p8576
tp8577
Rp8578
ag2
(S'1.0'
p8579
tp8580
Rp8581
ag2
(S'4.0'
p8582
tp8583
Rp8584
ag2
(S'110.0'
p8585
tp8586
Rp8587
ag2
(S'211.0'
p8588
tp8589
Rp8590
ag2
(S'0.0'
p8591
tp8592
Rp8593
ag2
(S'0.0'
p8594
tp8595
Rp8596
ag2
(S'161.0'
p8597
tp8598
Rp8599
ag2
(S'0.0'
p8600
tp8601
Rp8602
ag2
(S'0.0'
p8603
tp8604
Rp8605
ag2
(S'1.0'
p8606
tp8607
Rp8608
ag2
(S'0.0'
p8609
tp8610
Rp8611
ag2
(S'7.0'
p8612
tp8613
Rp8614
ag2
(g42
tp8615
Rp8616
aa(lp8617
g2
(S'45.0'
p8618
tp8619
Rp8620
ag2
(S'1.0'
p8621
tp8622
Rp8623
ag2
(S'4.0'
p8624
tp8625
Rp8626
ag2
(S'142.0'
p8627
tp8628
Rp8629
ag2
(S'309.0'
p8630
tp8631
Rp8632
ag2
(S'0.0'
p8633
tp8634
Rp8635
ag2
(S'2.0'
p8636
tp8637
Rp8638
ag2
(S'147.0'
p8639
tp8640
Rp8641
ag2
(S'1.0'
p8642
tp8643
Rp8644
ag2
(S'0.0'
p8645
tp8646
Rp8647
ag2
(S'2.0'
p8648
tp8649
Rp8650
ag2
(S'3.0'
p8651
tp8652
Rp8653
ag2
(S'7.0'
p8654
tp8655
Rp8656
ag2
(g297
tp8657
Rp8658
aa(lp8659
g2
(S'58.0'
p8660
tp8661
Rp8662
ag2
(S'1.0'
p8663
tp8664
Rp8665
ag2
(S'4.0'
p8666
tp8667
Rp8668
ag2
(S'128.0'
p8669
tp8670
Rp8671
ag2
(S'259.0'
p8672
tp8673
Rp8674
ag2
(S'0.0'
p8675
tp8676
Rp8677
ag2
(S'2.0'
p8678
tp8679
Rp8680
ag2
(S'130.0'
p8681
tp8682
Rp8683
ag2
(S'1.0'
p8684
tp8685
Rp8686
ag2
(S'3.0'
p8687
tp8688
Rp8689
ag2
(S'2.0'
p8690
tp8691
Rp8692
ag2
(S'2.0'
p8693
tp8694
Rp8695
ag2
(S'7.0'
p8696
tp8697
Rp8698
ag2
(g297
tp8699
Rp8700
aa(lp8701
g2
(S'50.0'
p8702
tp8703
Rp8704
ag2
(S'1.0'
p8705
tp8706
Rp8707
ag2
(S'4.0'
p8708
tp8709
Rp8710
ag2
(S'144.0'
p8711
tp8712
Rp8713
ag2
(S'200.0'
p8714
tp8715
Rp8716
ag2
(S'0.0'
p8717
tp8718
Rp8719
ag2
(S'2.0'
p8720
tp8721
Rp8722
ag2
(S'126.0'
p8723
tp8724
Rp8725
ag2
(S'1.0'
p8726
tp8727
Rp8728
ag2
(S'0.9'
p8729
tp8730
Rp8731
ag2
(S'2.0'
p8732
tp8733
Rp8734
ag2
(S'0.0'
p8735
tp8736
Rp8737
ag2
(S'7.0'
p8738
tp8739
Rp8740
ag2
(g297
tp8741
Rp8742
aa(lp8743
g2
(S'55.0'
p8744
tp8745
Rp8746
ag2
(S'1.0'
p8747
tp8748
Rp8749
ag2
(S'2.0'
p8750
tp8751
Rp8752
ag2
(S'130.0'
p8753
tp8754
Rp8755
ag2
(S'262.0'
p8756
tp8757
Rp8758
ag2
(S'0.0'
p8759
tp8760
Rp8761
ag2
(S'0.0'
p8762
tp8763
Rp8764
ag2
(S'155.0'
p8765
tp8766
Rp8767
ag2
(S'0.0'
p8768
tp8769
Rp8770
ag2
(S'0.0'
p8771
tp8772
Rp8773
ag2
(S'1.0'
p8774
tp8775
Rp8776
ag2
(S'0.0'
p8777
tp8778
Rp8779
ag2
(S'3.0'
p8780
tp8781
Rp8782
ag2
(g42
tp8783
Rp8784
aa(lp8785
g2
(S'62.0'
p8786
tp8787
Rp8788
ag2
(S'0.0'
p8789
tp8790
Rp8791
ag2
(S'4.0'
p8792
tp8793
Rp8794
ag2
(S'150.0'
p8795
tp8796
Rp8797
ag2
(S'244.0'
p8798
tp8799
Rp8800
ag2
(S'0.0'
p8801
tp8802
Rp8803
ag2
(S'0.0'
p8804
tp8805
Rp8806
ag2
(S'154.0'
p8807
tp8808
Rp8809
ag2
(S'1.0'
p8810
tp8811
Rp8812
ag2
(S'1.4'
p8813
tp8814
Rp8815
ag2
(S'2.0'
p8816
tp8817
Rp8818
ag2
(S'0.0'
p8819
tp8820
Rp8821
ag2
(S'3.0'
p8822
tp8823
Rp8824
ag2
(g128
tp8825
Rp8826
aa(lp8827
g2
(S'37.0'
p8828
tp8829
Rp8830
ag2
(S'0.0'
p8831
tp8832
Rp8833
ag2
(S'3.0'
p8834
tp8835
Rp8836
ag2
(S'120.0'
p8837
tp8838
Rp8839
ag2
(S'215.0'
p8840
tp8841
Rp8842
ag2
(S'0.0'
p8843
tp8844
Rp8845
ag2
(S'0.0'
p8846
tp8847
Rp8848
ag2
(S'170.0'
p8849
tp8850
Rp8851
ag2
(S'0.0'
p8852
tp8853
Rp8854
ag2
(S'0.0'
p8855
tp8856
Rp8857
ag2
(S'1.0'
p8858
tp8859
Rp8860
ag2
(S'0.0'
p8861
tp8862
Rp8863
ag2
(S'3.0'
p8864
tp8865
Rp8866
ag2
(g42
tp8867
Rp8868
aa(lp8869
g2
(S'38.0'
p8870
tp8871
Rp8872
ag2
(S'1.0'
p8873
tp8874
Rp8875
ag2
(S'1.0'
p8876
tp8877
Rp8878
ag2
(S'120.0'
p8879
tp8880
Rp8881
ag2
(S'231.0'
p8882
tp8883
Rp8884
ag2
(S'0.0'
p8885
tp8886
Rp8887
ag2
(S'0.0'
p8888
tp8889
Rp8890
ag2
(S'182.0'
p8891
tp8892
Rp8893
ag2
(S'1.0'
p8894
tp8895
Rp8896
ag2
(S'3.8'
p8897
tp8898
Rp8899
ag2
(S'2.0'
p8900
tp8901
Rp8902
ag2
(S'0.0'
p8903
tp8904
Rp8905
ag2
(S'7.0'
p8906
tp8907
Rp8908
ag2
(g1054
tp8909
Rp8910
aa(lp8911
g2
(S'41.0'
p8912
tp8913
Rp8914
ag2
(S'1.0'
p8915
tp8916
Rp8917
ag2
(S'3.0'
p8918
tp8919
Rp8920
ag2
(S'130.0'
p8921
tp8922
Rp8923
ag2
(S'214.0'
p8924
tp8925
Rp8926
ag2
(S'0.0'
p8927
tp8928
Rp8929
ag2
(S'2.0'
p8930
tp8931
Rp8932
ag2
(S'168.0'
p8933
tp8934
Rp8935
ag2
(S'0.0'
p8936
tp8937
Rp8938
ag2
(S'2.0'
p8939
tp8940
Rp8941
ag2
(S'2.0'
p8942
tp8943
Rp8944
ag2
(S'0.0'
p8945
tp8946
Rp8947
ag2
(S'3.0'
p8948
tp8949
Rp8950
ag2
(g42
tp8951
Rp8952
aa(lp8953
g2
(S'66.0'
p8954
tp8955
Rp8956
ag2
(S'0.0'
p8957
tp8958
Rp8959
ag2
(S'4.0'
p8960
tp8961
Rp8962
ag2
(S'178.0'
p8963
tp8964
Rp8965
ag2
(S'228.0'
p8966
tp8967
Rp8968
ag2
(S'1.0'
p8969
tp8970
Rp8971
ag2
(S'0.0'
p8972
tp8973
Rp8974
ag2
(S'165.0'
p8975
tp8976
Rp8977
ag2
(S'1.0'
p8978
tp8979
Rp8980
ag2
(S'1.0'
p8981
tp8982
Rp8983
ag2
(S'2.0'
p8984
tp8985
Rp8986
ag2
(S'2.0'
p8987
tp8988
Rp8989
ag2
(S'7.0'
p8990
tp8991
Rp8992
ag2
(g297
tp8993
Rp8994
aa(lp8995
g2
(S'52.0'
p8996
tp8997
Rp8998
ag2
(S'1.0'
p8999
tp9000
Rp9001
ag2
(S'4.0'
p9002
tp9003
Rp9004
ag2
(S'112.0'
p9005
tp9006
Rp9007
ag2
(S'230.0'
p9008
tp9009
Rp9010
ag2
(S'0.0'
p9011
tp9012
Rp9013
ag2
(S'0.0'
p9014
tp9015
Rp9016
ag2
(S'160.0'
p9017
tp9018
Rp9019
ag2
(S'0.0'
p9020
tp9021
Rp9022
ag2
(S'0.0'
p9023
tp9024
Rp9025
ag2
(S'1.0'
p9026
tp9027
Rp9028
ag2
(S'1.0'
p9029
tp9030
Rp9031
ag2
(S'3.0'
p9032
tp9033
Rp9034
ag2
(g128
tp9035
Rp9036
aa(lp9037
g2
(S'56.0'
p9038
tp9039
Rp9040
ag2
(S'1.0'
p9041
tp9042
Rp9043
ag2
(S'1.0'
p9044
tp9045
Rp9046
ag2
(S'120.0'
p9047
tp9048
Rp9049
ag2
(S'193.0'
p9050
tp9051
Rp9052
ag2
(S'0.0'
p9053
tp9054
Rp9055
ag2
(S'2.0'
p9056
tp9057
Rp9058
ag2
(S'162.0'
p9059
tp9060
Rp9061
ag2
(S'0.0'
p9062
tp9063
Rp9064
ag2
(S'1.9'
p9065
tp9066
Rp9067
ag2
(S'2.0'
p9068
tp9069
Rp9070
ag2
(S'0.0'
p9071
tp9072
Rp9073
ag2
(S'7.0'
p9074
tp9075
Rp9076
ag2
(g42
tp9077
Rp9078
aa(lp9079
g2
(S'46.0'
p9080
tp9081
Rp9082
ag2
(S'0.0'
p9083
tp9084
Rp9085
ag2
(S'2.0'
p9086
tp9087
Rp9088
ag2
(S'105.0'
p9089
tp9090
Rp9091
ag2
(S'204.0'
p9092
tp9093
Rp9094
ag2
(S'0.0'
p9095
tp9096
Rp9097
ag2
(S'0.0'
p9098
tp9099
Rp9100
ag2
(S'172.0'
p9101
tp9102
Rp9103
ag2
(S'0.0'
p9104
tp9105
Rp9106
ag2
(S'0.0'
p9107
tp9108
Rp9109
ag2
(S'1.0'
p9110
tp9111
Rp9112
ag2
(S'0.0'
p9113
tp9114
Rp9115
ag2
(S'3.0'
p9116
tp9117
Rp9118
ag2
(g42
tp9119
Rp9120
aa(lp9121
g2
(S'46.0'
p9122
tp9123
Rp9124
ag2
(S'0.0'
p9125
tp9126
Rp9127
ag2
(S'4.0'
p9128
tp9129
Rp9130
ag2
(S'138.0'
p9131
tp9132
Rp9133
ag2
(S'243.0'
p9134
tp9135
Rp9136
ag2
(S'0.0'
p9137
tp9138
Rp9139
ag2
(S'2.0'
p9140
tp9141
Rp9142
ag2
(S'152.0'
p9143
tp9144
Rp9145
ag2
(S'1.0'
p9146
tp9147
Rp9148
ag2
(S'0.0'
p9149
tp9150
Rp9151
ag2
(S'2.0'
p9152
tp9153
Rp9154
ag2
(S'0.0'
p9155
tp9156
Rp9157
ag2
(S'3.0'
p9158
tp9159
Rp9160
ag2
(g42
tp9161
Rp9162
aa(lp9163
g2
(S'64.0'
p9164
tp9165
Rp9166
ag2
(S'0.0'
p9167
tp9168
Rp9169
ag2
(S'4.0'
p9170
tp9171
Rp9172
ag2
(S'130.0'
p9173
tp9174
Rp9175
ag2
(S'303.0'
p9176
tp9177
Rp9178
ag2
(S'0.0'
p9179
tp9180
Rp9181
ag2
(S'0.0'
p9182
tp9183
Rp9184
ag2
(S'122.0'
p9185
tp9186
Rp9187
ag2
(S'0.0'
p9188
tp9189
Rp9190
ag2
(S'2.0'
p9191
tp9192
Rp9193
ag2
(S'2.0'
p9194
tp9195
Rp9196
ag2
(S'2.0'
p9197
tp9198
Rp9199
ag2
(S'3.0'
p9200
tp9201
Rp9202
ag2
(g42
tp9203
Rp9204
aa(lp9205
g2
(S'59.0'
p9206
tp9207
Rp9208
ag2
(S'1.0'
p9209
tp9210
Rp9211
ag2
(S'4.0'
p9212
tp9213
Rp9214
ag2
(S'138.0'
p9215
tp9216
Rp9217
ag2
(S'271.0'
p9218
tp9219
Rp9220
ag2
(S'0.0'
p9221
tp9222
Rp9223
ag2
(S'2.0'
p9224
tp9225
Rp9226
ag2
(S'182.0'
p9227
tp9228
Rp9229
ag2
(S'0.0'
p9230
tp9231
Rp9232
ag2
(S'0.0'
p9233
tp9234
Rp9235
ag2
(S'1.0'
p9236
tp9237
Rp9238
ag2
(S'0.0'
p9239
tp9240
Rp9241
ag2
(S'3.0'
p9242
tp9243
Rp9244
ag2
(g42
tp9245
Rp9246
aa(lp9247
g2
(S'41.0'
p9248
tp9249
Rp9250
ag2
(S'0.0'
p9251
tp9252
Rp9253
ag2
(S'3.0'
p9254
tp9255
Rp9256
ag2
(S'112.0'
p9257
tp9258
Rp9259
ag2
(S'268.0'
p9260
tp9261
Rp9262
ag2
(S'0.0'
p9263
tp9264
Rp9265
ag2
(S'2.0'
p9266
tp9267
Rp9268
ag2
(S'172.0'
p9269
tp9270
Rp9271
ag2
(S'1.0'
p9272
tp9273
Rp9274
ag2
(S'0.0'
p9275
tp9276
Rp9277
ag2
(S'1.0'
p9278
tp9279
Rp9280
ag2
(S'0.0'
p9281
tp9282
Rp9283
ag2
(S'3.0'
p9284
tp9285
Rp9286
ag2
(g42
tp9287
Rp9288
aa(lp9289
g2
(S'54.0'
p9290
tp9291
Rp9292
ag2
(S'0.0'
p9293
tp9294
Rp9295
ag2
(S'3.0'
p9296
tp9297
Rp9298
ag2
(S'108.0'
p9299
tp9300
Rp9301
ag2
(S'267.0'
p9302
tp9303
Rp9304
ag2
(S'0.0'
p9305
tp9306
Rp9307
ag2
(S'2.0'
p9308
tp9309
Rp9310
ag2
(S'167.0'
p9311
tp9312
Rp9313
ag2
(S'0.0'
p9314
tp9315
Rp9316
ag2
(S'0.0'
p9317
tp9318
Rp9319
ag2
(S'1.0'
p9320
tp9321
Rp9322
ag2
(S'0.0'
p9323
tp9324
Rp9325
ag2
(S'3.0'
p9326
tp9327
Rp9328
ag2
(g42
tp9329
Rp9330
aa(lp9331
g2
(S'39.0'
p9332
tp9333
Rp9334
ag2
(S'0.0'
p9335
tp9336
Rp9337
ag2
(S'3.0'
p9338
tp9339
Rp9340
ag2
(S'94.0'
p9341
tp9342
Rp9343
ag2
(S'199.0'
p9344
tp9345
Rp9346
ag2
(S'0.0'
p9347
tp9348
Rp9349
ag2
(S'0.0'
p9350
tp9351
Rp9352
ag2
(S'179.0'
p9353
tp9354
Rp9355
ag2
(S'0.0'
p9356
tp9357
Rp9358
ag2
(S'0.0'
p9359
tp9360
Rp9361
ag2
(S'1.0'
p9362
tp9363
Rp9364
ag2
(S'0.0'
p9365
tp9366
Rp9367
ag2
(S'3.0'
p9368
tp9369
Rp9370
ag2
(g42
tp9371
Rp9372
aa(lp9373
g2
(S'53.0'
p9374
tp9375
Rp9376
ag2
(S'1.0'
p9377
tp9378
Rp9379
ag2
(S'4.0'
p9380
tp9381
Rp9382
ag2
(S'123.0'
p9383
tp9384
Rp9385
ag2
(S'282.0'
p9386
tp9387
Rp9388
ag2
(S'0.0'
p9389
tp9390
Rp9391
ag2
(S'0.0'
p9392
tp9393
Rp9394
ag2
(S'95.0'
p9395
tp9396
Rp9397
ag2
(S'1.0'
p9398
tp9399
Rp9400
ag2
(S'2.0'
p9401
tp9402
Rp9403
ag2
(S'2.0'
p9404
tp9405
Rp9406
ag2
(S'2.0'
p9407
tp9408
Rp9409
ag2
(S'7.0'
p9410
tp9411
Rp9412
ag2
(g297
tp9413
Rp9414
aa(lp9415
g2
(S'63.0'
p9416
tp9417
Rp9418
ag2
(S'0.0'
p9419
tp9420
Rp9421
ag2
(S'4.0'
p9422
tp9423
Rp9424
ag2
(S'108.0'
p9425
tp9426
Rp9427
ag2
(S'269.0'
p9428
tp9429
Rp9430
ag2
(S'0.0'
p9431
tp9432
Rp9433
ag2
(S'0.0'
p9434
tp9435
Rp9436
ag2
(S'169.0'
p9437
tp9438
Rp9439
ag2
(S'1.0'
p9440
tp9441
Rp9442
ag2
(S'1.8'
p9443
tp9444
Rp9445
ag2
(S'2.0'
p9446
tp9447
Rp9448
ag2
(S'2.0'
p9449
tp9450
Rp9451
ag2
(S'3.0'
p9452
tp9453
Rp9454
ag2
(g128
tp9455
Rp9456
aa(lp9457
g2
(S'34.0'
p9458
tp9459
Rp9460
ag2
(S'0.0'
p9461
tp9462
Rp9463
ag2
(S'2.0'
p9464
tp9465
Rp9466
ag2
(S'118.0'
p9467
tp9468
Rp9469
ag2
(S'210.0'
p9470
tp9471
Rp9472
ag2
(S'0.0'
p9473
tp9474
Rp9475
ag2
(S'0.0'
p9476
tp9477
Rp9478
ag2
(S'192.0'
p9479
tp9480
Rp9481
ag2
(S'0.0'
p9482
tp9483
Rp9484
ag2
(S'0.7'
p9485
tp9486
Rp9487
ag2
(S'1.0'
p9488
tp9489
Rp9490
ag2
(S'0.0'
p9491
tp9492
Rp9493
ag2
(S'3.0'
p9494
tp9495
Rp9496
ag2
(g42
tp9497
Rp9498
aa(lp9499
g2
(S'47.0'
p9500
tp9501
Rp9502
ag2
(S'1.0'
p9503
tp9504
Rp9505
ag2
(S'4.0'
p9506
tp9507
Rp9508
ag2
(S'112.0'
p9509
tp9510
Rp9511
ag2
(S'204.0'
p9512
tp9513
Rp9514
ag2
(S'0.0'
p9515
tp9516
Rp9517
ag2
(S'0.0'
p9518
tp9519
Rp9520
ag2
(S'143.0'
p9521
tp9522
Rp9523
ag2
(S'0.0'
p9524
tp9525
Rp9526
ag2
(S'0.1'
p9527
tp9528
Rp9529
ag2
(S'1.0'
p9530
tp9531
Rp9532
ag2
(S'0.0'
p9533
tp9534
Rp9535
ag2
(S'3.0'
p9536
tp9537
Rp9538
ag2
(g42
tp9539
Rp9540
aa(lp9541
g2
(S'67.0'
p9542
tp9543
Rp9544
ag2
(S'0.0'
p9545
tp9546
Rp9547
ag2
(S'3.0'
p9548
tp9549
Rp9550
ag2
(S'152.0'
p9551
tp9552
Rp9553
ag2
(S'277.0'
p9554
tp9555
Rp9556
ag2
(S'0.0'
p9557
tp9558
Rp9559
ag2
(S'0.0'
p9560
tp9561
Rp9562
ag2
(S'172.0'
p9563
tp9564
Rp9565
ag2
(S'0.0'
p9566
tp9567
Rp9568
ag2
(S'0.0'
p9569
tp9570
Rp9571
ag2
(S'1.0'
p9572
tp9573
Rp9574
ag2
(S'1.0'
p9575
tp9576
Rp9577
ag2
(S'3.0'
p9578
tp9579
Rp9580
ag2
(g42
tp9581
Rp9582
aa(lp9583
g2
(S'54.0'
p9584
tp9585
Rp9586
ag2
(S'1.0'
p9587
tp9588
Rp9589
ag2
(S'4.0'
p9590
tp9591
Rp9592
ag2
(S'110.0'
p9593
tp9594
Rp9595
ag2
(S'206.0'
p9596
tp9597
Rp9598
ag2
(S'0.0'
p9599
tp9600
Rp9601
ag2
(S'2.0'
p9602
tp9603
Rp9604
ag2
(S'108.0'
p9605
tp9606
Rp9607
ag2
(S'1.0'
p9608
tp9609
Rp9610
ag2
(S'0.0'
p9611
tp9612
Rp9613
ag2
(S'2.0'
p9614
tp9615
Rp9616
ag2
(S'1.0'
p9617
tp9618
Rp9619
ag2
(S'3.0'
p9620
tp9621
Rp9622
ag2
(g297
tp9623
Rp9624
aa(lp9625
g2
(S'66.0'
p9626
tp9627
Rp9628
ag2
(S'1.0'
p9629
tp9630
Rp9631
ag2
(S'4.0'
p9632
tp9633
Rp9634
ag2
(S'112.0'
p9635
tp9636
Rp9637
ag2
(S'212.0'
p9638
tp9639
Rp9640
ag2
(S'0.0'
p9641
tp9642
Rp9643
ag2
(S'2.0'
p9644
tp9645
Rp9646
ag2
(S'132.0'
p9647
tp9648
Rp9649
ag2
(S'1.0'
p9650
tp9651
Rp9652
ag2
(S'0.1'
p9653
tp9654
Rp9655
ag2
(S'1.0'
p9656
tp9657
Rp9658
ag2
(S'1.0'
p9659
tp9660
Rp9661
ag2
(S'3.0'
p9662
tp9663
Rp9664
ag2
(g85
tp9665
Rp9666
aa(lp9667
g2
(S'52.0'
p9668
tp9669
Rp9670
ag2
(S'0.0'
p9671
tp9672
Rp9673
ag2
(S'3.0'
p9674
tp9675
Rp9676
ag2
(S'136.0'
p9677
tp9678
Rp9679
ag2
(S'196.0'
p9680
tp9681
Rp9682
ag2
(S'0.0'
p9683
tp9684
Rp9685
ag2
(S'2.0'
p9686
tp9687
Rp9688
ag2
(S'169.0'
p9689
tp9690
Rp9691
ag2
(S'0.0'
p9692
tp9693
Rp9694
ag2
(S'0.1'
p9695
tp9696
Rp9697
ag2
(S'2.0'
p9698
tp9699
Rp9700
ag2
(S'0.0'
p9701
tp9702
Rp9703
ag2
(S'3.0'
p9704
tp9705
Rp9706
ag2
(g42
tp9707
Rp9708
aa(lp9709
g2
(S'55.0'
p9710
tp9711
Rp9712
ag2
(S'0.0'
p9713
tp9714
Rp9715
ag2
(S'4.0'
p9716
tp9717
Rp9718
ag2
(S'180.0'
p9719
tp9720
Rp9721
ag2
(S'327.0'
p9722
tp9723
Rp9724
ag2
(S'0.0'
p9725
tp9726
Rp9727
ag2
(S'1.0'
p9728
tp9729
Rp9730
ag2
(S'117.0'
p9731
tp9732
Rp9733
ag2
(S'1.0'
p9734
tp9735
Rp9736
ag2
(S'3.4'
p9737
tp9738
Rp9739
ag2
(S'2.0'
p9740
tp9741
Rp9742
ag2
(S'0.0'
p9743
tp9744
Rp9745
ag2
(S'3.0'
p9746
tp9747
Rp9748
ag2
(g85
tp9749
Rp9750
aa(lp9751
g2
(S'49.0'
p9752
tp9753
Rp9754
ag2
(S'1.0'
p9755
tp9756
Rp9757
ag2
(S'3.0'
p9758
tp9759
Rp9760
ag2
(S'118.0'
p9761
tp9762
Rp9763
ag2
(S'149.0'
p9764
tp9765
Rp9766
ag2
(S'0.0'
p9767
tp9768
Rp9769
ag2
(S'2.0'
p9770
tp9771
Rp9772
ag2
(S'126.0'
p9773
tp9774
Rp9775
ag2
(S'0.0'
p9776
tp9777
Rp9778
ag2
(S'0.8'
p9779
tp9780
Rp9781
ag2
(S'1.0'
p9782
tp9783
Rp9784
ag2
(S'3.0'
p9785
tp9786
Rp9787
ag2
(S'3.0'
p9788
tp9789
Rp9790
ag2
(g128
tp9791
Rp9792
aa(lp9793
g2
(S'74.0'
p9794
tp9795
Rp9796
ag2
(S'0.0'
p9797
tp9798
Rp9799
ag2
(S'2.0'
p9800
tp9801
Rp9802
ag2
(S'120.0'
p9803
tp9804
Rp9805
ag2
(S'269.0'
p9806
tp9807
Rp9808
ag2
(S'0.0'
p9809
tp9810
Rp9811
ag2
(S'2.0'
p9812
tp9813
Rp9814
ag2
(S'121.0'
p9815
tp9816
Rp9817
ag2
(S'1.0'
p9818
tp9819
Rp9820
ag2
(S'0.2'
p9821
tp9822
Rp9823
ag2
(S'1.0'
p9824
tp9825
Rp9826
ag2
(S'1.0'
p9827
tp9828
Rp9829
ag2
(S'3.0'
p9830
tp9831
Rp9832
ag2
(g42
tp9833
Rp9834
aa(lp9835
g2
(S'54.0'
p9836
tp9837
Rp9838
ag2
(S'0.0'
p9839
tp9840
Rp9841
ag2
(S'3.0'
p9842
tp9843
Rp9844
ag2
(S'160.0'
p9845
tp9846
Rp9847
ag2
(S'201.0'
p9848
tp9849
Rp9850
ag2
(S'0.0'
p9851
tp9852
Rp9853
ag2
(S'0.0'
p9854
tp9855
Rp9856
ag2
(S'163.0'
p9857
tp9858
Rp9859
ag2
(S'0.0'
p9860
tp9861
Rp9862
ag2
(S'0.0'
p9863
tp9864
Rp9865
ag2
(S'1.0'
p9866
tp9867
Rp9868
ag2
(S'1.0'
p9869
tp9870
Rp9871
ag2
(S'3.0'
p9872
tp9873
Rp9874
ag2
(g42
tp9875
Rp9876
aa(lp9877
g2
(S'54.0'
p9878
tp9879
Rp9880
ag2
(S'1.0'
p9881
tp9882
Rp9883
ag2
(S'4.0'
p9884
tp9885
Rp9886
ag2
(S'122.0'
p9887
tp9888
Rp9889
ag2
(S'286.0'
p9890
tp9891
Rp9892
ag2
(S'0.0'
p9893
tp9894
Rp9895
ag2
(S'2.0'
p9896
tp9897
Rp9898
ag2
(S'116.0'
p9899
tp9900
Rp9901
ag2
(S'1.0'
p9902
tp9903
Rp9904
ag2
(S'3.2'
p9905
tp9906
Rp9907
ag2
(S'2.0'
p9908
tp9909
Rp9910
ag2
(S'2.0'
p9911
tp9912
Rp9913
ag2
(S'3.0'
p9914
tp9915
Rp9916
ag2
(g297
tp9917
Rp9918
aa(lp9919
g2
(S'56.0'
p9920
tp9921
Rp9922
ag2
(S'1.0'
p9923
tp9924
Rp9925
ag2
(S'4.0'
p9926
tp9927
Rp9928
ag2
(S'130.0'
p9929
tp9930
Rp9931
ag2
(S'283.0'
p9932
tp9933
Rp9934
ag2
(S'1.0'
p9935
tp9936
Rp9937
ag2
(S'2.0'
p9938
tp9939
Rp9940
ag2
(S'103.0'
p9941
tp9942
Rp9943
ag2
(S'1.0'
p9944
tp9945
Rp9946
ag2
(S'1.6'
p9947
tp9948
Rp9949
ag2
(S'3.0'
p9950
tp9951
Rp9952
ag2
(S'0.0'
p9953
tp9954
Rp9955
ag2
(S'7.0'
p9956
tp9957
Rp9958
ag2
(g85
tp9959
Rp9960
aa(lp9961
g2
(S'46.0'
p9962
tp9963
Rp9964
ag2
(S'1.0'
p9965
tp9966
Rp9967
ag2
(S'4.0'
p9968
tp9969
Rp9970
ag2
(S'120.0'
p9971
tp9972
Rp9973
ag2
(S'249.0'
p9974
tp9975
Rp9976
ag2
(S'0.0'
p9977
tp9978
Rp9979
ag2
(S'2.0'
p9980
tp9981
Rp9982
ag2
(S'144.0'
p9983
tp9984
Rp9985
ag2
(S'0.0'
p9986
tp9987
Rp9988
ag2
(S'0.8'
p9989
tp9990
Rp9991
ag2
(S'1.0'
p9992
tp9993
Rp9994
ag2
(S'0.0'
p9995
tp9996
Rp9997
ag2
(S'7.0'
p9998
tp9999
Rp10000
ag2
(g128
tp10001
Rp10002
aa(lp10003
g2
(S'49.0'
p10004
tp10005
Rp10006
ag2
(S'0.0'
p10007
tp10008
Rp10009
ag2
(S'2.0'
p10010
tp10011
Rp10012
ag2
(S'134.0'
p10013
tp10014
Rp10015
ag2
(S'271.0'
p10016
tp10017
Rp10018
ag2
(S'0.0'
p10019
tp10020
Rp10021
ag2
(S'0.0'
p10022
tp10023
Rp10024
ag2
(S'162.0'
p10025
tp10026
Rp10027
ag2
(S'0.0'
p10028
tp10029
Rp10030
ag2
(S'0.0'
p10031
tp10032
Rp10033
ag2
(S'2.0'
p10034
tp10035
Rp10036
ag2
(S'0.0'
p10037
tp10038
Rp10039
ag2
(S'3.0'
p10040
tp10041
Rp10042
ag2
(g42
tp10043
Rp10044
aa(lp10045
g2
(S'42.0'
p10046
tp10047
Rp10048
ag2
(S'1.0'
p10049
tp10050
Rp10051
ag2
(S'2.0'
p10052
tp10053
Rp10054
ag2
(S'120.0'
p10055
tp10056
Rp10057
ag2
(S'295.0'
p10058
tp10059
Rp10060
ag2
(S'0.0'
p10061
tp10062
Rp10063
ag2
(S'0.0'
p10064
tp10065
Rp10066
ag2
(S'162.0'
p10067
tp10068
Rp10069
ag2
(S'0.0'
p10070
tp10071
Rp10072
ag2
(S'0.0'
p10073
tp10074
Rp10075
ag2
(S'1.0'
p10076
tp10077
Rp10078
ag2
(S'0.0'
p10079
tp10080
Rp10081
ag2
(S'3.0'
p10082
tp10083
Rp10084
ag2
(g42
tp10085
Rp10086
aa(lp10087
g2
(S'41.0'
p10088
tp10089
Rp10090
ag2
(S'1.0'
p10091
tp10092
Rp10093
ag2
(S'2.0'
p10094
tp10095
Rp10096
ag2
(S'110.0'
p10097
tp10098
Rp10099
ag2
(S'235.0'
p10100
tp10101
Rp10102
ag2
(S'0.0'
p10103
tp10104
Rp10105
ag2
(S'0.0'
p10106
tp10107
Rp10108
ag2
(S'153.0'
p10109
tp10110
Rp10111
ag2
(S'0.0'
p10112
tp10113
Rp10114
ag2
(S'0.0'
p10115
tp10116
Rp10117
ag2
(S'1.0'
p10118
tp10119
Rp10120
ag2
(S'0.0'
p10121
tp10122
Rp10123
ag2
(S'3.0'
p10124
tp10125
Rp10126
ag2
(g42
tp10127
Rp10128
aa(lp10129
g2
(S'41.0'
p10130
tp10131
Rp10132
ag2
(S'0.0'
p10133
tp10134
Rp10135
ag2
(S'2.0'
p10136
tp10137
Rp10138
ag2
(S'126.0'
p10139
tp10140
Rp10141
ag2
(S'306.0'
p10142
tp10143
Rp10144
ag2
(S'0.0'
p10145
tp10146
Rp10147
ag2
(S'0.0'
p10148
tp10149
Rp10150
ag2
(S'163.0'
p10151
tp10152
Rp10153
ag2
(S'0.0'
p10154
tp10155
Rp10156
ag2
(S'0.0'
p10157
tp10158
Rp10159
ag2
(S'1.0'
p10160
tp10161
Rp10162
ag2
(S'0.0'
p10163
tp10164
Rp10165
ag2
(S'3.0'
p10166
tp10167
Rp10168
ag2
(g42
tp10169
Rp10170
aa(lp10171
g2
(S'49.0'
p10172
tp10173
Rp10174
ag2
(S'0.0'
p10175
tp10176
Rp10177
ag2
(S'4.0'
p10178
tp10179
Rp10180
ag2
(S'130.0'
p10181
tp10182
Rp10183
ag2
(S'269.0'
p10184
tp10185
Rp10186
ag2
(S'0.0'
p10187
tp10188
Rp10189
ag2
(S'0.0'
p10190
tp10191
Rp10192
ag2
(S'163.0'
p10193
tp10194
Rp10195
ag2
(S'0.0'
p10196
tp10197
Rp10198
ag2
(S'0.0'
p10199
tp10200
Rp10201
ag2
(S'1.0'
p10202
tp10203
Rp10204
ag2
(S'0.0'
p10205
tp10206
Rp10207
ag2
(S'3.0'
p10208
tp10209
Rp10210
ag2
(g42
tp10211
Rp10212
aa(lp10213
g2
(S'61.0'
p10214
tp10215
Rp10216
ag2
(S'1.0'
p10217
tp10218
Rp10219
ag2
(S'1.0'
p10220
tp10221
Rp10222
ag2
(S'134.0'
p10223
tp10224
Rp10225
ag2
(S'234.0'
p10226
tp10227
Rp10228
ag2
(S'0.0'
p10229
tp10230
Rp10231
ag2
(S'0.0'
p10232
tp10233
Rp10234
ag2
(S'145.0'
p10235
tp10236
Rp10237
ag2
(S'0.0'
p10238
tp10239
Rp10240
ag2
(S'2.6'
p10241
tp10242
Rp10243
ag2
(S'2.0'
p10244
tp10245
Rp10246
ag2
(S'2.0'
p10247
tp10248
Rp10249
ag2
(S'3.0'
p10250
tp10251
Rp10252
ag2
(g85
tp10253
Rp10254
aa(lp10255
g2
(S'60.0'
p10256
tp10257
Rp10258
ag2
(S'0.0'
p10259
tp10260
Rp10261
ag2
(S'3.0'
p10262
tp10263
Rp10264
ag2
(S'120.0'
p10265
tp10266
Rp10267
ag2
(S'178.0'
p10268
tp10269
Rp10270
ag2
(S'1.0'
p10271
tp10272
Rp10273
ag2
(S'0.0'
p10274
tp10275
Rp10276
ag2
(S'96.0'
p10277
tp10278
Rp10279
ag2
(S'0.0'
p10280
tp10281
Rp10282
ag2
(S'0.0'
p10283
tp10284
Rp10285
ag2
(S'1.0'
p10286
tp10287
Rp10288
ag2
(S'0.0'
p10289
tp10290
Rp10291
ag2
(S'3.0'
p10292
tp10293
Rp10294
ag2
(g42
tp10295
Rp10296
aa(lp10297
g2
(S'67.0'
p10298
tp10299
Rp10300
ag2
(S'1.0'
p10301
tp10302
Rp10303
ag2
(S'4.0'
p10304
tp10305
Rp10306
ag2
(S'120.0'
p10307
tp10308
Rp10309
ag2
(S'237.0'
p10310
tp10311
Rp10312
ag2
(S'0.0'
p10313
tp10314
Rp10315
ag2
(S'0.0'
p10316
tp10317
Rp10318
ag2
(S'71.0'
p10319
tp10320
Rp10321
ag2
(S'0.0'
p10322
tp10323
Rp10324
ag2
(S'1.0'
p10325
tp10326
Rp10327
ag2
(S'2.0'
p10328
tp10329
Rp10330
ag2
(S'0.0'
p10331
tp10332
Rp10333
ag2
(S'3.0'
p10334
tp10335
Rp10336
ag2
(g85
tp10337
Rp10338
aa(lp10339
g2
(S'58.0'
p10340
tp10341
Rp10342
ag2
(S'1.0'
p10343
tp10344
Rp10345
ag2
(S'4.0'
p10346
tp10347
Rp10348
ag2
(S'100.0'
p10349
tp10350
Rp10351
ag2
(S'234.0'
p10352
tp10353
Rp10354
ag2
(S'0.0'
p10355
tp10356
Rp10357
ag2
(S'0.0'
p10358
tp10359
Rp10360
ag2
(S'156.0'
p10361
tp10362
Rp10363
ag2
(S'0.0'
p10364
tp10365
Rp10366
ag2
(S'0.1'
p10367
tp10368
Rp10369
ag2
(S'1.0'
p10370
tp10371
Rp10372
ag2
(S'1.0'
p10373
tp10374
Rp10375
ag2
(S'7.0'
p10376
tp10377
Rp10378
ag2
(g85
tp10379
Rp10380
aa(lp10381
g2
(S'47.0'
p10382
tp10383
Rp10384
ag2
(S'1.0'
p10385
tp10386
Rp10387
ag2
(S'4.0'
p10388
tp10389
Rp10390
ag2
(S'110.0'
p10391
tp10392
Rp10393
ag2
(S'275.0'
p10394
tp10395
Rp10396
ag2
(S'0.0'
p10397
tp10398
Rp10399
ag2
(S'2.0'
p10400
tp10401
Rp10402
ag2
(S'118.0'
p10403
tp10404
Rp10405
ag2
(S'1.0'
p10406
tp10407
Rp10408
ag2
(S'1.0'
p10409
tp10410
Rp10411
ag2
(S'2.0'
p10412
tp10413
Rp10414
ag2
(S'1.0'
p10415
tp10416
Rp10417
ag2
(S'3.0'
p10418
tp10419
Rp10420
ag2
(g128
tp10421
Rp10422
aa(lp10423
g2
(S'52.0'
p10424
tp10425
Rp10426
ag2
(S'1.0'
p10427
tp10428
Rp10429
ag2
(S'4.0'
p10430
tp10431
Rp10432
ag2
(S'125.0'
p10433
tp10434
Rp10435
ag2
(S'212.0'
p10436
tp10437
Rp10438
ag2
(S'0.0'
p10439
tp10440
Rp10441
ag2
(S'0.0'
p10442
tp10443
Rp10444
ag2
(S'168.0'
p10445
tp10446
Rp10447
ag2
(S'0.0'
p10448
tp10449
Rp10450
ag2
(S'1.0'
p10451
tp10452
Rp10453
ag2
(S'1.0'
p10454
tp10455
Rp10456
ag2
(S'2.0'
p10457
tp10458
Rp10459
ag2
(S'7.0'
p10460
tp10461
Rp10462
ag2
(g297
tp10463
Rp10464
aa(lp10465
g2
(S'62.0'
p10466
tp10467
Rp10468
ag2
(S'1.0'
p10469
tp10470
Rp10471
ag2
(S'2.0'
p10472
tp10473
Rp10474
ag2
(S'128.0'
p10475
tp10476
Rp10477
ag2
(S'208.0'
p10478
tp10479
Rp10480
ag2
(S'1.0'
p10481
tp10482
Rp10483
ag2
(S'2.0'
p10484
tp10485
Rp10486
ag2
(S'140.0'
p10487
tp10488
Rp10489
ag2
(S'0.0'
p10490
tp10491
Rp10492
ag2
(S'0.0'
p10493
tp10494
Rp10495
ag2
(S'1.0'
p10496
tp10497
Rp10498
ag2
(S'0.0'
p10499
tp10500
Rp10501
ag2
(S'3.0'
p10502
tp10503
Rp10504
ag2
(g42
tp10505
Rp10506
aa(lp10507
g2
(S'57.0'
p10508
tp10509
Rp10510
ag2
(S'1.0'
p10511
tp10512
Rp10513
ag2
(S'4.0'
p10514
tp10515
Rp10516
ag2
(S'110.0'
p10517
tp10518
Rp10519
ag2
(S'201.0'
p10520
tp10521
Rp10522
ag2
(S'0.0'
p10523
tp10524
Rp10525
ag2
(S'0.0'
p10526
tp10527
Rp10528
ag2
(S'126.0'
p10529
tp10530
Rp10531
ag2
(S'1.0'
p10532
tp10533
Rp10534
ag2
(S'1.5'
p10535
tp10536
Rp10537
ag2
(S'2.0'
p10538
tp10539
Rp10540
ag2
(S'0.0'
p10541
tp10542
Rp10543
ag2
(S'6.0'
p10544
tp10545
Rp10546
ag2
(g42
tp10547
Rp10548
aa(lp10549
g2
(S'58.0'
p10550
tp10551
Rp10552
ag2
(S'1.0'
p10553
tp10554
Rp10555
ag2
(S'4.0'
p10556
tp10557
Rp10558
ag2
(S'146.0'
p10559
tp10560
Rp10561
ag2
(S'218.0'
p10562
tp10563
Rp10564
ag2
(S'0.0'
p10565
tp10566
Rp10567
ag2
(S'0.0'
p10568
tp10569
Rp10570
ag2
(S'105.0'
p10571
tp10572
Rp10573
ag2
(S'0.0'
p10574
tp10575
Rp10576
ag2
(S'2.0'
p10577
tp10578
Rp10579
ag2
(S'2.0'
p10580
tp10581
Rp10582
ag2
(S'1.0'
p10583
tp10584
Rp10585
ag2
(S'7.0'
p10586
tp10587
Rp10588
ag2
(g128
tp10589
Rp10590
aa(lp10591
g2
(S'64.0'
p10592
tp10593
Rp10594
ag2
(S'1.0'
p10595
tp10596
Rp10597
ag2
(S'4.0'
p10598
tp10599
Rp10600
ag2
(S'128.0'
p10601
tp10602
Rp10603
ag2
(S'263.0'
p10604
tp10605
Rp10606
ag2
(S'0.0'
p10607
tp10608
Rp10609
ag2
(S'0.0'
p10610
tp10611
Rp10612
ag2
(S'105.0'
p10613
tp10614
Rp10615
ag2
(S'1.0'
p10616
tp10617
Rp10618
ag2
(S'0.2'
p10619
tp10620
Rp10621
ag2
(S'2.0'
p10622
tp10623
Rp10624
ag2
(S'1.0'
p10625
tp10626
Rp10627
ag2
(S'7.0'
p10628
tp10629
Rp10630
ag2
(g42
tp10631
Rp10632
aa(lp10633
g2
(S'51.0'
p10634
tp10635
Rp10636
ag2
(S'0.0'
p10637
tp10638
Rp10639
ag2
(S'3.0'
p10640
tp10641
Rp10642
ag2
(S'120.0'
p10643
tp10644
Rp10645
ag2
(S'295.0'
p10646
tp10647
Rp10648
ag2
(S'0.0'
p10649
tp10650
Rp10651
ag2
(S'2.0'
p10652
tp10653
Rp10654
ag2
(S'157.0'
p10655
tp10656
Rp10657
ag2
(S'0.0'
p10658
tp10659
Rp10660
ag2
(S'0.6'
p10661
tp10662
Rp10663
ag2
(S'1.0'
p10664
tp10665
Rp10666
ag2
(S'0.0'
p10667
tp10668
Rp10669
ag2
(S'3.0'
p10670
tp10671
Rp10672
ag2
(g42
tp10673
Rp10674
aa(lp10675
g2
(S'43.0'
p10676
tp10677
Rp10678
ag2
(S'1.0'
p10679
tp10680
Rp10681
ag2
(S'4.0'
p10682
tp10683
Rp10684
ag2
(S'115.0'
p10685
tp10686
Rp10687
ag2
(S'303.0'
p10688
tp10689
Rp10690
ag2
(S'0.0'
p10691
tp10692
Rp10693
ag2
(S'0.0'
p10694
tp10695
Rp10696
ag2
(S'181.0'
p10697
tp10698
Rp10699
ag2
(S'0.0'
p10700
tp10701
Rp10702
ag2
(S'1.2'
p10703
tp10704
Rp10705
ag2
(S'2.0'
p10706
tp10707
Rp10708
ag2
(S'0.0'
p10709
tp10710
Rp10711
ag2
(S'3.0'
p10712
tp10713
Rp10714
ag2
(g42
tp10715
Rp10716
aa(lp10717
g2
(S'42.0'
p10718
tp10719
Rp10720
ag2
(S'0.0'
p10721
tp10722
Rp10723
ag2
(S'3.0'
p10724
tp10725
Rp10726
ag2
(S'120.0'
p10727
tp10728
Rp10729
ag2
(S'209.0'
p10730
tp10731
Rp10732
ag2
(S'0.0'
p10733
tp10734
Rp10735
ag2
(S'0.0'
p10736
tp10737
Rp10738
ag2
(S'173.0'
p10739
tp10740
Rp10741
ag2
(S'0.0'
p10742
tp10743
Rp10744
ag2
(S'0.0'
p10745
tp10746
Rp10747
ag2
(S'2.0'
p10748
tp10749
Rp10750
ag2
(S'0.0'
p10751
tp10752
Rp10753
ag2
(S'3.0'
p10754
tp10755
Rp10756
ag2
(g42
tp10757
Rp10758
aa(lp10759
g2
(S'67.0'
p10760
tp10761
Rp10762
ag2
(S'0.0'
p10763
tp10764
Rp10765
ag2
(S'4.0'
p10766
tp10767
Rp10768
ag2
(S'106.0'
p10769
tp10770
Rp10771
ag2
(S'223.0'
p10772
tp10773
Rp10774
ag2
(S'0.0'
p10775
tp10776
Rp10777
ag2
(S'0.0'
p10778
tp10779
Rp10780
ag2
(S'142.0'
p10781
tp10782
Rp10783
ag2
(S'0.0'
p10784
tp10785
Rp10786
ag2
(S'0.3'
p10787
tp10788
Rp10789
ag2
(S'1.0'
p10790
tp10791
Rp10792
ag2
(S'2.0'
p10793
tp10794
Rp10795
ag2
(S'3.0'
p10796
tp10797
Rp10798
ag2
(g42
tp10799
Rp10800
aa(lp10801
g2
(S'76.0'
p10802
tp10803
Rp10804
ag2
(S'0.0'
p10805
tp10806
Rp10807
ag2
(S'3.0'
p10808
tp10809
Rp10810
ag2
(S'140.0'
p10811
tp10812
Rp10813
ag2
(S'197.0'
p10814
tp10815
Rp10816
ag2
(S'0.0'
p10817
tp10818
Rp10819
ag2
(S'1.0'
p10820
tp10821
Rp10822
ag2
(S'116.0'
p10823
tp10824
Rp10825
ag2
(S'0.0'
p10826
tp10827
Rp10828
ag2
(S'1.1'
p10829
tp10830
Rp10831
ag2
(S'2.0'
p10832
tp10833
Rp10834
ag2
(S'0.0'
p10835
tp10836
Rp10837
ag2
(S'3.0'
p10838
tp10839
Rp10840
ag2
(g42
tp10841
Rp10842
aa(lp10843
g2
(S'70.0'
p10844
tp10845
Rp10846
ag2
(S'1.0'
p10847
tp10848
Rp10849
ag2
(S'2.0'
p10850
tp10851
Rp10852
ag2
(S'156.0'
p10853
tp10854
Rp10855
ag2
(S'245.0'
p10856
tp10857
Rp10858
ag2
(S'0.0'
p10859
tp10860
Rp10861
ag2
(S'2.0'
p10862
tp10863
Rp10864
ag2
(S'143.0'
p10865
tp10866
Rp10867
ag2
(S'0.0'
p10868
tp10869
Rp10870
ag2
(S'0.0'
p10871
tp10872
Rp10873
ag2
(S'1.0'
p10874
tp10875
Rp10876
ag2
(S'0.0'
p10877
tp10878
Rp10879
ag2
(S'3.0'
p10880
tp10881
Rp10882
ag2
(g42
tp10883
Rp10884
aa(lp10885
g2
(S'57.0'
p10886
tp10887
Rp10888
ag2
(S'1.0'
p10889
tp10890
Rp10891
ag2
(S'2.0'
p10892
tp10893
Rp10894
ag2
(S'124.0'
p10895
tp10896
Rp10897
ag2
(S'261.0'
p10898
tp10899
Rp10900
ag2
(S'0.0'
p10901
tp10902
Rp10903
ag2
(S'0.0'
p10904
tp10905
Rp10906
ag2
(S'141.0'
p10907
tp10908
Rp10909
ag2
(S'0.0'
p10910
tp10911
Rp10912
ag2
(S'0.3'
p10913
tp10914
Rp10915
ag2
(S'1.0'
p10916
tp10917
Rp10918
ag2
(S'0.0'
p10919
tp10920
Rp10921
ag2
(S'7.0'
p10922
tp10923
Rp10924
ag2
(g128
tp10925
Rp10926
aa(lp10927
g2
(S'44.0'
p10928
tp10929
Rp10930
ag2
(S'0.0'
p10931
tp10932
Rp10933
ag2
(S'3.0'
p10934
tp10935
Rp10936
ag2
(S'118.0'
p10937
tp10938
Rp10939
ag2
(S'242.0'
p10940
tp10941
Rp10942
ag2
(S'0.0'
p10943
tp10944
Rp10945
ag2
(S'0.0'
p10946
tp10947
Rp10948
ag2
(S'149.0'
p10949
tp10950
Rp10951
ag2
(S'0.0'
p10952
tp10953
Rp10954
ag2
(S'0.3'
p10955
tp10956
Rp10957
ag2
(S'2.0'
p10958
tp10959
Rp10960
ag2
(S'1.0'
p10961
tp10962
Rp10963
ag2
(S'3.0'
p10964
tp10965
Rp10966
ag2
(g42
tp10967
Rp10968
aa(lp10969
g2
(S'58.0'
p10970
tp10971
Rp10972
ag2
(S'0.0'
p10973
tp10974
Rp10975
ag2
(S'2.0'
p10976
tp10977
Rp10978
ag2
(S'136.0'
p10979
tp10980
Rp10981
ag2
(S'319.0'
p10982
tp10983
Rp10984
ag2
(S'1.0'
p10985
tp10986
Rp10987
ag2
(S'2.0'
p10988
tp10989
Rp10990
ag2
(S'152.0'
p10991
tp10992
Rp10993
ag2
(S'0.0'
p10994
tp10995
Rp10996
ag2
(S'0.0'
p10997
tp10998
Rp10999
ag2
(S'1.0'
p11000
tp11001
Rp11002
ag2
(S'2.0'
p11003
tp11004
Rp11005
ag2
(S'3.0'
p11006
tp11007
Rp11008
ag2
(g297
tp11009
Rp11010
aa(lp11011
g2
(S'60.0'
p11012
tp11013
Rp11014
ag2
(S'0.0'
p11015
tp11016
Rp11017
ag2
(S'1.0'
p11018
tp11019
Rp11020
ag2
(S'150.0'
p11021
tp11022
Rp11023
ag2
(S'240.0'
p11024
tp11025
Rp11026
ag2
(S'0.0'
p11027
tp11028
Rp11029
ag2
(S'0.0'
p11030
tp11031
Rp11032
ag2
(S'171.0'
p11033
tp11034
Rp11035
ag2
(S'0.0'
p11036
tp11037
Rp11038
ag2
(S'0.9'
p11039
tp11040
Rp11041
ag2
(S'1.0'
p11042
tp11043
Rp11044
ag2
(S'0.0'
p11045
tp11046
Rp11047
ag2
(S'3.0'
p11048
tp11049
Rp11050
ag2
(g42
tp11051
Rp11052
aa(lp11053
g2
(S'44.0'
p11054
tp11055
Rp11056
ag2
(S'1.0'
p11057
tp11058
Rp11059
ag2
(S'3.0'
p11060
tp11061
Rp11062
ag2
(S'120.0'
p11063
tp11064
Rp11065
ag2
(S'226.0'
p11066
tp11067
Rp11068
ag2
(S'0.0'
p11069
tp11070
Rp11071
ag2
(S'0.0'
p11072
tp11073
Rp11074
ag2
(S'169.0'
p11075
tp11076
Rp11077
ag2
(S'0.0'
p11078
tp11079
Rp11080
ag2
(S'0.0'
p11081
tp11082
Rp11083
ag2
(S'1.0'
p11084
tp11085
Rp11086
ag2
(S'0.0'
p11087
tp11088
Rp11089
ag2
(S'3.0'
p11090
tp11091
Rp11092
ag2
(g42
tp11093
Rp11094
aa(lp11095
g2
(S'61.0'
p11096
tp11097
Rp11098
ag2
(S'1.0'
p11099
tp11100
Rp11101
ag2
(S'4.0'
p11102
tp11103
Rp11104
ag2
(S'138.0'
p11105
tp11106
Rp11107
ag2
(S'166.0'
p11108
tp11109
Rp11110
ag2
(S'0.0'
p11111
tp11112
Rp11113
ag2
(S'2.0'
p11114
tp11115
Rp11116
ag2
(S'125.0'
p11117
tp11118
Rp11119
ag2
(S'1.0'
p11120
tp11121
Rp11122
ag2
(S'3.6'
p11123
tp11124
Rp11125
ag2
(S'2.0'
p11126
tp11127
Rp11128
ag2
(S'1.0'
p11129
tp11130
Rp11131
ag2
(S'3.0'
p11132
tp11133
Rp11134
ag2
(g1054
tp11135
Rp11136
aa(lp11137
g2
(S'42.0'
p11138
tp11139
Rp11140
ag2
(S'1.0'
p11141
tp11142
Rp11143
ag2
(S'4.0'
p11144
tp11145
Rp11146
ag2
(S'136.0'
p11147
tp11148
Rp11149
ag2
(S'315.0'
p11150
tp11151
Rp11152
ag2
(S'0.0'
p11153
tp11154
Rp11155
ag2
(S'0.0'
p11156
tp11157
Rp11158
ag2
(S'125.0'
p11159
tp11160
Rp11161
ag2
(S'1.0'
p11162
tp11163
Rp11164
ag2
(S'1.8'
p11165
tp11166
Rp11167
ag2
(S'2.0'
p11168
tp11169
Rp11170
ag2
(S'0.0'
p11171
tp11172
Rp11173
ag2
(S'6.0'
p11174
tp11175
Rp11176
ag2
(g85
tp11177
Rp11178
aa(lp11179
g2
(S'52.0'
p11180
tp11181
Rp11182
ag2
(S'1.0'
p11183
tp11184
Rp11185
ag2
(S'4.0'
p11186
tp11187
Rp11188
ag2
(S'128.0'
p11189
tp11190
Rp11191
ag2
(S'204.0'
p11192
tp11193
Rp11194
ag2
(S'1.0'
p11195
tp11196
Rp11197
ag2
(S'0.0'
p11198
tp11199
Rp11200
ag2
(S'156.0'
p11201
tp11202
Rp11203
ag2
(S'1.0'
p11204
tp11205
Rp11206
ag2
(S'1.0'
p11207
tp11208
Rp11209
ag2
(S'2.0'
p11210
tp11211
Rp11212
ag2
(S'0.0'
p11213
tp11214
Rp11215
ag2
(S'0.0'
p11216
tp11217
Rp11218
ag2
(g85
tp11219
Rp11220
aa(lp11221
g2
(S'59.0'
p11222
tp11223
Rp11224
ag2
(S'1.0'
p11225
tp11226
Rp11227
ag2
(S'3.0'
p11228
tp11229
Rp11230
ag2
(S'126.0'
p11231
tp11232
Rp11233
ag2
(S'218.0'
p11234
tp11235
Rp11236
ag2
(S'1.0'
p11237
tp11238
Rp11239
ag2
(S'0.0'
p11240
tp11241
Rp11242
ag2
(S'134.0'
p11243
tp11244
Rp11245
ag2
(S'0.0'
p11246
tp11247
Rp11248
ag2
(S'2.2'
p11249
tp11250
Rp11251
ag2
(S'2.0'
p11252
tp11253
Rp11254
ag2
(S'1.0'
p11255
tp11256
Rp11257
ag2
(S'6.0'
p11258
tp11259
Rp11260
ag2
(g85
tp11261
Rp11262
aa(lp11263
g2
(S'40.0'
p11264
tp11265
Rp11266
ag2
(S'1.0'
p11267
tp11268
Rp11269
ag2
(S'4.0'
p11270
tp11271
Rp11272
ag2
(S'152.0'
p11273
tp11274
Rp11275
ag2
(S'223.0'
p11276
tp11277
Rp11278
ag2
(S'0.0'
p11279
tp11280
Rp11281
ag2
(S'0.0'
p11282
tp11283
Rp11284
ag2
(S'181.0'
p11285
tp11286
Rp11287
ag2
(S'0.0'
p11288
tp11289
Rp11290
ag2
(S'0.0'
p11291
tp11292
Rp11293
ag2
(S'1.0'
p11294
tp11295
Rp11296
ag2
(S'0.0'
p11297
tp11298
Rp11299
ag2
(S'7.0'
p11300
tp11301
Rp11302
ag2
(g128
tp11303
Rp11304
aa(lp11305
g2
(S'42.0'
p11306
tp11307
Rp11308
ag2
(S'1.0'
p11309
tp11310
Rp11311
ag2
(S'3.0'
p11312
tp11313
Rp11314
ag2
(S'130.0'
p11315
tp11316
Rp11317
ag2
(S'180.0'
p11318
tp11319
Rp11320
ag2
(S'0.0'
p11321
tp11322
Rp11323
ag2
(S'0.0'
p11324
tp11325
Rp11326
ag2
(S'150.0'
p11327
tp11328
Rp11329
ag2
(S'0.0'
p11330
tp11331
Rp11332
ag2
(S'0.0'
p11333
tp11334
Rp11335
ag2
(S'1.0'
p11336
tp11337
Rp11338
ag2
(S'0.0'
p11339
tp11340
Rp11341
ag2
(S'3.0'
p11342
tp11343
Rp11344
ag2
(g42
tp11345
Rp11346
aa(lp11347
g2
(S'61.0'
p11348
tp11349
Rp11350
ag2
(S'1.0'
p11351
tp11352
Rp11353
ag2
(S'4.0'
p11354
tp11355
Rp11356
ag2
(S'140.0'
p11357
tp11358
Rp11359
ag2
(S'207.0'
p11360
tp11361
Rp11362
ag2
(S'0.0'
p11363
tp11364
Rp11365
ag2
(S'2.0'
p11366
tp11367
Rp11368
ag2
(S'138.0'
p11369
tp11370
Rp11371
ag2
(S'1.0'
p11372
tp11373
Rp11374
ag2
(S'1.9'
p11375
tp11376
Rp11377
ag2
(S'1.0'
p11378
tp11379
Rp11380
ag2
(S'1.0'
p11381
tp11382
Rp11383
ag2
(S'7.0'
p11384
tp11385
Rp11386
ag2
(g128
tp11387
Rp11388
aa(lp11389
g2
(S'66.0'
p11390
tp11391
Rp11392
ag2
(S'1.0'
p11393
tp11394
Rp11395
ag2
(S'4.0'
p11396
tp11397
Rp11398
ag2
(S'160.0'
p11399
tp11400
Rp11401
ag2
(S'228.0'
p11402
tp11403
Rp11404
ag2
(S'0.0'
p11405
tp11406
Rp11407
ag2
(S'2.0'
p11408
tp11409
Rp11410
ag2
(S'138.0'
p11411
tp11412
Rp11413
ag2
(S'0.0'
p11414
tp11415
Rp11416
ag2
(S'2.3'
p11417
tp11418
Rp11419
ag2
(S'1.0'
p11420
tp11421
Rp11422
ag2
(S'0.0'
p11423
tp11424
Rp11425
ag2
(S'6.0'
p11426
tp11427
Rp11428
ag2
(g42
tp11429
Rp11430
aa(lp11431
g2
(S'46.0'
p11432
tp11433
Rp11434
ag2
(S'1.0'
p11435
tp11436
Rp11437
ag2
(S'4.0'
p11438
tp11439
Rp11440
ag2
(S'140.0'
p11441
tp11442
Rp11443
ag2
(S'311.0'
p11444
tp11445
Rp11446
ag2
(S'0.0'
p11447
tp11448
Rp11449
ag2
(S'0.0'
p11450
tp11451
Rp11452
ag2
(S'120.0'
p11453
tp11454
Rp11455
ag2
(S'1.0'
p11456
tp11457
Rp11458
ag2
(S'1.8'
p11459
tp11460
Rp11461
ag2
(S'2.0'
p11462
tp11463
Rp11464
ag2
(S'2.0'
p11465
tp11466
Rp11467
ag2
(S'7.0'
p11468
tp11469
Rp11470
ag2
(g85
tp11471
Rp11472
aa(lp11473
g2
(S'71.0'
p11474
tp11475
Rp11476
ag2
(S'0.0'
p11477
tp11478
Rp11479
ag2
(S'4.0'
p11480
tp11481
Rp11482
ag2
(S'112.0'
p11483
tp11484
Rp11485
ag2
(S'149.0'
p11486
tp11487
Rp11488
ag2
(S'0.0'
p11489
tp11490
Rp11491
ag2
(S'0.0'
p11492
tp11493
Rp11494
ag2
(S'125.0'
p11495
tp11496
Rp11497
ag2
(S'0.0'
p11498
tp11499
Rp11500
ag2
(S'1.6'
p11501
tp11502
Rp11503
ag2
(S'2.0'
p11504
tp11505
Rp11506
ag2
(S'0.0'
p11507
tp11508
Rp11509
ag2
(S'3.0'
p11510
tp11511
Rp11512
ag2
(g42
tp11513
Rp11514
aa(lp11515
g2
(S'59.0'
p11516
tp11517
Rp11518
ag2
(S'1.0'
p11519
tp11520
Rp11521
ag2
(S'1.0'
p11522
tp11523
Rp11524
ag2
(S'134.0'
p11525
tp11526
Rp11527
ag2
(S'204.0'
p11528
tp11529
Rp11530
ag2
(S'0.0'
p11531
tp11532
Rp11533
ag2
(S'0.0'
p11534
tp11535
Rp11536
ag2
(S'162.0'
p11537
tp11538
Rp11539
ag2
(S'0.0'
p11540
tp11541
Rp11542
ag2
(S'0.8'
p11543
tp11544
Rp11545
ag2
(S'1.0'
p11546
tp11547
Rp11548
ag2
(S'2.0'
p11549
tp11550
Rp11551
ag2
(S'3.0'
p11552
tp11553
Rp11554
ag2
(g128
tp11555
Rp11556
aa(lp11557
g2
(S'64.0'
p11558
tp11559
Rp11560
ag2
(S'1.0'
p11561
tp11562
Rp11563
ag2
(S'1.0'
p11564
tp11565
Rp11566
ag2
(S'170.0'
p11567
tp11568
Rp11569
ag2
(S'227.0'
p11570
tp11571
Rp11572
ag2
(S'0.0'
p11573
tp11574
Rp11575
ag2
(S'2.0'
p11576
tp11577
Rp11578
ag2
(S'155.0'
p11579
tp11580
Rp11581
ag2
(S'0.0'
p11582
tp11583
Rp11584
ag2
(S'0.6'
p11585
tp11586
Rp11587
ag2
(S'2.0'
p11588
tp11589
Rp11590
ag2
(S'0.0'
p11591
tp11592
Rp11593
ag2
(S'7.0'
p11594
tp11595
Rp11596
ag2
(g42
tp11597
Rp11598
aa(lp11599
g2
(S'66.0'
p11600
tp11601
Rp11602
ag2
(S'0.0'
p11603
tp11604
Rp11605
ag2
(S'3.0'
p11606
tp11607
Rp11608
ag2
(S'146.0'
p11609
tp11610
Rp11611
ag2
(S'278.0'
p11612
tp11613
Rp11614
ag2
(S'0.0'
p11615
tp11616
Rp11617
ag2
(S'2.0'
p11618
tp11619
Rp11620
ag2
(S'152.0'
p11621
tp11622
Rp11623
ag2
(S'0.0'
p11624
tp11625
Rp11626
ag2
(S'0.0'
p11627
tp11628
Rp11629
ag2
(S'2.0'
p11630
tp11631
Rp11632
ag2
(S'1.0'
p11633
tp11634
Rp11635
ag2
(S'3.0'
p11636
tp11637
Rp11638
ag2
(g42
tp11639
Rp11640
aa(lp11641
g2
(S'39.0'
p11642
tp11643
Rp11644
ag2
(S'0.0'
p11645
tp11646
Rp11647
ag2
(S'3.0'
p11648
tp11649
Rp11650
ag2
(S'138.0'
p11651
tp11652
Rp11653
ag2
(S'220.0'
p11654
tp11655
Rp11656
ag2
(S'0.0'
p11657
tp11658
Rp11659
ag2
(S'0.0'
p11660
tp11661
Rp11662
ag2
(S'152.0'
p11663
tp11664
Rp11665
ag2
(S'0.0'
p11666
tp11667
Rp11668
ag2
(S'0.0'
p11669
tp11670
Rp11671
ag2
(S'2.0'
p11672
tp11673
Rp11674
ag2
(S'0.0'
p11675
tp11676
Rp11677
ag2
(S'3.0'
p11678
tp11679
Rp11680
ag2
(g42
tp11681
Rp11682
aa(lp11683
g2
(S'57.0'
p11684
tp11685
Rp11686
ag2
(S'1.0'
p11687
tp11688
Rp11689
ag2
(S'2.0'
p11690
tp11691
Rp11692
ag2
(S'154.0'
p11693
tp11694
Rp11695
ag2
(S'232.0'
p11696
tp11697
Rp11698
ag2
(S'0.0'
p11699
tp11700
Rp11701
ag2
(S'2.0'
p11702
tp11703
Rp11704
ag2
(S'164.0'
p11705
tp11706
Rp11707
ag2
(S'0.0'
p11708
tp11709
Rp11710
ag2
(S'0.0'
p11711
tp11712
Rp11713
ag2
(S'1.0'
p11714
tp11715
Rp11716
ag2
(S'1.0'
p11717
tp11718
Rp11719
ag2
(S'3.0'
p11720
tp11721
Rp11722
ag2
(g128
tp11723
Rp11724
aa(lp11725
g2
(S'58.0'
p11726
tp11727
Rp11728
ag2
(S'0.0'
p11729
tp11730
Rp11731
ag2
(S'4.0'
p11732
tp11733
Rp11734
ag2
(S'130.0'
p11735
tp11736
Rp11737
ag2
(S'197.0'
p11738
tp11739
Rp11740
ag2
(S'0.0'
p11741
tp11742
Rp11743
ag2
(S'0.0'
p11744
tp11745
Rp11746
ag2
(S'131.0'
p11747
tp11748
Rp11749
ag2
(S'0.0'
p11750
tp11751
Rp11752
ag2
(S'0.6'
p11753
tp11754
Rp11755
ag2
(S'2.0'
p11756
tp11757
Rp11758
ag2
(S'0.0'
p11759
tp11760
Rp11761
ag2
(S'3.0'
p11762
tp11763
Rp11764
ag2
(g42
tp11765
Rp11766
aa(lp11767
g2
(S'57.0'
p11768
tp11769
Rp11770
ag2
(S'1.0'
p11771
tp11772
Rp11773
ag2
(S'4.0'
p11774
tp11775
Rp11776
ag2
(S'110.0'
p11777
tp11778
Rp11779
ag2
(S'335.0'
p11780
tp11781
Rp11782
ag2
(S'0.0'
p11783
tp11784
Rp11785
ag2
(S'0.0'
p11786
tp11787
Rp11788
ag2
(S'143.0'
p11789
tp11790
Rp11791
ag2
(S'1.0'
p11792
tp11793
Rp11794
ag2
(S'3.0'
p11795
tp11796
Rp11797
ag2
(S'2.0'
p11798
tp11799
Rp11800
ag2
(S'1.0'
p11801
tp11802
Rp11803
ag2
(S'7.0'
p11804
tp11805
Rp11806
ag2
(g85
tp11807
Rp11808
aa(lp11809
g2
(S'47.0'
p11810
tp11811
Rp11812
ag2
(S'1.0'
p11813
tp11814
Rp11815
ag2
(S'3.0'
p11816
tp11817
Rp11818
ag2
(S'130.0'
p11819
tp11820
Rp11821
ag2
(S'253.0'
p11822
tp11823
Rp11824
ag2
(S'0.0'
p11825
tp11826
Rp11827
ag2
(S'0.0'
p11828
tp11829
Rp11830
ag2
(S'179.0'
p11831
tp11832
Rp11833
ag2
(S'0.0'
p11834
tp11835
Rp11836
ag2
(S'0.0'
p11837
tp11838
Rp11839
ag2
(S'1.0'
p11840
tp11841
Rp11842
ag2
(S'0.0'
p11843
tp11844
Rp11845
ag2
(S'3.0'
p11846
tp11847
Rp11848
ag2
(g42
tp11849
Rp11850
aa(lp11851
g2
(S'55.0'
p11852
tp11853
Rp11854
ag2
(S'0.0'
p11855
tp11856
Rp11857
ag2
(S'4.0'
p11858
tp11859
Rp11860
ag2
(S'128.0'
p11861
tp11862
Rp11863
ag2
(S'205.0'
p11864
tp11865
Rp11866
ag2
(S'0.0'
p11867
tp11868
Rp11869
ag2
(S'1.0'
p11870
tp11871
Rp11872
ag2
(S'130.0'
p11873
tp11874
Rp11875
ag2
(S'1.0'
p11876
tp11877
Rp11878
ag2
(S'2.0'
p11879
tp11880
Rp11881
ag2
(S'2.0'
p11882
tp11883
Rp11884
ag2
(S'1.0'
p11885
tp11886
Rp11887
ag2
(S'7.0'
p11888
tp11889
Rp11890
ag2
(g297
tp11891
Rp11892
aa(lp11893
g2
(S'35.0'
p11894
tp11895
Rp11896
ag2
(S'1.0'
p11897
tp11898
Rp11899
ag2
(S'2.0'
p11900
tp11901
Rp11902
ag2
(S'122.0'
p11903
tp11904
Rp11905
ag2
(S'192.0'
p11906
tp11907
Rp11908
ag2
(S'0.0'
p11909
tp11910
Rp11911
ag2
(S'0.0'
p11912
tp11913
Rp11914
ag2
(S'174.0'
p11915
tp11916
Rp11917
ag2
(S'0.0'
p11918
tp11919
Rp11920
ag2
(S'0.0'
p11921
tp11922
Rp11923
ag2
(S'1.0'
p11924
tp11925
Rp11926
ag2
(S'0.0'
p11927
tp11928
Rp11929
ag2
(S'3.0'
p11930
tp11931
Rp11932
ag2
(g42
tp11933
Rp11934
aa(lp11935
g2
(S'61.0'
p11936
tp11937
Rp11938
ag2
(S'1.0'
p11939
tp11940
Rp11941
ag2
(S'4.0'
p11942
tp11943
Rp11944
ag2
(S'148.0'
p11945
tp11946
Rp11947
ag2
(S'203.0'
p11948
tp11949
Rp11950
ag2
(S'0.0'
p11951
tp11952
Rp11953
ag2
(S'0.0'
p11954
tp11955
Rp11956
ag2
(S'161.0'
p11957
tp11958
Rp11959
ag2
(S'0.0'
p11960
tp11961
Rp11962
ag2
(S'0.0'
p11963
tp11964
Rp11965
ag2
(S'1.0'
p11966
tp11967
Rp11968
ag2
(S'1.0'
p11969
tp11970
Rp11971
ag2
(S'7.0'
p11972
tp11973
Rp11974
ag2
(g85
tp11975
Rp11976
aa(lp11977
g2
(S'58.0'
p11978
tp11979
Rp11980
ag2
(S'1.0'
p11981
tp11982
Rp11983
ag2
(S'4.0'
p11984
tp11985
Rp11986
ag2
(S'114.0'
p11987
tp11988
Rp11989
ag2
(S'318.0'
p11990
tp11991
Rp11992
ag2
(S'0.0'
p11993
tp11994
Rp11995
ag2
(S'1.0'
p11996
tp11997
Rp11998
ag2
(S'140.0'
p11999
tp12000
Rp12001
ag2
(S'0.0'
p12002
tp12003
Rp12004
ag2
(S'4.4'
p12005
tp12006
Rp12007
ag2
(S'3.0'
p12008
tp12009
Rp12010
ag2
(S'3.0'
p12011
tp12012
Rp12013
ag2
(S'6.0'
p12014
tp12015
Rp12016
ag2
(g1054
tp12017
Rp12018
aa(lp12019
g2
(S'58.0'
p12020
tp12021
Rp12022
ag2
(S'0.0'
p12023
tp12024
Rp12025
ag2
(S'4.0'
p12026
tp12027
Rp12028
ag2
(S'170.0'
p12029
tp12030
Rp12031
ag2
(S'225.0'
p12032
tp12033
Rp12034
ag2
(S'1.0'
p12035
tp12036
Rp12037
ag2
(S'2.0'
p12038
tp12039
Rp12040
ag2
(S'146.0'
p12041
tp12042
Rp12043
ag2
(S'1.0'
p12044
tp12045
Rp12046
ag2
(S'2.8'
p12047
tp12048
Rp12049
ag2
(S'2.0'
p12050
tp12051
Rp12052
ag2
(S'2.0'
p12053
tp12054
Rp12055
ag2
(S'6.0'
p12056
tp12057
Rp12058
ag2
(g85
tp12059
Rp12060
aa(lp12061
g2
(S'58.0'
p12062
tp12063
Rp12064
ag2
(S'1.0'
p12065
tp12066
Rp12067
ag2
(S'2.0'
p12068
tp12069
Rp12070
ag2
(S'125.0'
p12071
tp12072
Rp12073
ag2
(S'220.0'
p12074
tp12075
Rp12076
ag2
(S'0.0'
p12077
tp12078
Rp12079
ag2
(S'0.0'
p12080
tp12081
Rp12082
ag2
(S'144.0'
p12083
tp12084
Rp12085
ag2
(S'0.0'
p12086
tp12087
Rp12088
ag2
(S'0.4'
p12089
tp12090
Rp12091
ag2
(S'2.0'
p12092
tp12093
Rp12094
ag2
(S'0.0'
p12095
tp12096
Rp12097
ag2
(S'7.0'
p12098
tp12099
Rp12100
ag2
(g42
tp12101
Rp12102
aa(lp12103
g2
(S'56.0'
p12104
tp12105
Rp12106
ag2
(S'1.0'
p12107
tp12108
Rp12109
ag2
(S'2.0'
p12110
tp12111
Rp12112
ag2
(S'130.0'
p12113
tp12114
Rp12115
ag2
(S'221.0'
p12116
tp12117
Rp12118
ag2
(S'0.0'
p12119
tp12120
Rp12121
ag2
(S'2.0'
p12122
tp12123
Rp12124
ag2
(S'163.0'
p12125
tp12126
Rp12127
ag2
(S'0.0'
p12128
tp12129
Rp12130
ag2
(S'0.0'
p12131
tp12132
Rp12133
ag2
(S'1.0'
p12134
tp12135
Rp12136
ag2
(S'0.0'
p12137
tp12138
Rp12139
ag2
(S'7.0'
p12140
tp12141
Rp12142
ag2
(g42
tp12143
Rp12144
aa(lp12145
g2
(S'56.0'
p12146
tp12147
Rp12148
ag2
(S'1.0'
p12149
tp12150
Rp12151
ag2
(S'2.0'
p12152
tp12153
Rp12154
ag2
(S'120.0'
p12155
tp12156
Rp12157
ag2
(S'240.0'
p12158
tp12159
Rp12160
ag2
(S'0.0'
p12161
tp12162
Rp12163
ag2
(S'0.0'
p12164
tp12165
Rp12166
ag2
(S'169.0'
p12167
tp12168
Rp12169
ag2
(S'0.0'
p12170
tp12171
Rp12172
ag2
(S'0.0'
p12173
tp12174
Rp12175
ag2
(S'3.0'
p12176
tp12177
Rp12178
ag2
(S'0.0'
p12179
tp12180
Rp12181
ag2
(S'3.0'
p12182
tp12183
Rp12184
ag2
(g42
tp12185
Rp12186
aa(lp12187
g2
(S'67.0'
p12188
tp12189
Rp12190
ag2
(S'1.0'
p12191
tp12192
Rp12193
ag2
(S'3.0'
p12194
tp12195
Rp12196
ag2
(S'152.0'
p12197
tp12198
Rp12199
ag2
(S'212.0'
p12200
tp12201
Rp12202
ag2
(S'0.0'
p12203
tp12204
Rp12205
ag2
(S'2.0'
p12206
tp12207
Rp12208
ag2
(S'150.0'
p12209
tp12210
Rp12211
ag2
(S'0.0'
p12212
tp12213
Rp12214
ag2
(S'0.8'
p12215
tp12216
Rp12217
ag2
(S'2.0'
p12218
tp12219
Rp12220
ag2
(S'0.0'
p12221
tp12222
Rp12223
ag2
(S'7.0'
p12224
tp12225
Rp12226
ag2
(g128
tp12227
Rp12228
aa(lp12229
g2
(S'55.0'
p12230
tp12231
Rp12232
ag2
(S'0.0'
p12233
tp12234
Rp12235
ag2
(S'2.0'
p12236
tp12237
Rp12238
ag2
(S'132.0'
p12239
tp12240
Rp12241
ag2
(S'342.0'
p12242
tp12243
Rp12244
ag2
(S'0.0'
p12245
tp12246
Rp12247
ag2
(S'0.0'
p12248
tp12249
Rp12250
ag2
(S'166.0'
p12251
tp12252
Rp12253
ag2
(S'0.0'
p12254
tp12255
Rp12256
ag2
(S'1.2'
p12257
tp12258
Rp12259
ag2
(S'1.0'
p12260
tp12261
Rp12262
ag2
(S'0.0'
p12263
tp12264
Rp12265
ag2
(S'3.0'
p12266
tp12267
Rp12268
ag2
(g42
tp12269
Rp12270
aa(lp12271
g2
(S'44.0'
p12272
tp12273
Rp12274
ag2
(S'1.0'
p12275
tp12276
Rp12277
ag2
(S'4.0'
p12278
tp12279
Rp12280
ag2
(S'120.0'
p12281
tp12282
Rp12283
ag2
(S'169.0'
p12284
tp12285
Rp12286
ag2
(S'0.0'
p12287
tp12288
Rp12289
ag2
(S'0.0'
p12290
tp12291
Rp12292
ag2
(S'144.0'
p12293
tp12294
Rp12295
ag2
(S'1.0'
p12296
tp12297
Rp12298
ag2
(S'2.8'
p12299
tp12300
Rp12301
ag2
(S'3.0'
p12302
tp12303
Rp12304
ag2
(S'0.0'
p12305
tp12306
Rp12307
ag2
(S'6.0'
p12308
tp12309
Rp12310
ag2
(g85
tp12311
Rp12312
aa(lp12313
g2
(S'63.0'
p12314
tp12315
Rp12316
ag2
(S'1.0'
p12317
tp12318
Rp12319
ag2
(S'4.0'
p12320
tp12321
Rp12322
ag2
(S'140.0'
p12323
tp12324
Rp12325
ag2
(S'187.0'
p12326
tp12327
Rp12328
ag2
(S'0.0'
p12329
tp12330
Rp12331
ag2
(S'2.0'
p12332
tp12333
Rp12334
ag2
(S'144.0'
p12335
tp12336
Rp12337
ag2
(S'1.0'
p12338
tp12339
Rp12340
ag2
(S'4.0'
p12341
tp12342
Rp12343
ag2
(S'1.0'
p12344
tp12345
Rp12346
ag2
(S'2.0'
p12347
tp12348
Rp12349
ag2
(S'7.0'
p12350
tp12351
Rp12352
ag2
(g85
tp12353
Rp12354
aa(lp12355
g2
(S'63.0'
p12356
tp12357
Rp12358
ag2
(S'0.0'
p12359
tp12360
Rp12361
ag2
(S'4.0'
p12362
tp12363
Rp12364
ag2
(S'124.0'
p12365
tp12366
Rp12367
ag2
(S'197.0'
p12368
tp12369
Rp12370
ag2
(S'0.0'
p12371
tp12372
Rp12373
ag2
(S'0.0'
p12374
tp12375
Rp12376
ag2
(S'136.0'
p12377
tp12378
Rp12379
ag2
(S'1.0'
p12380
tp12381
Rp12382
ag2
(S'0.0'
p12383
tp12384
Rp12385
ag2
(S'2.0'
p12386
tp12387
Rp12388
ag2
(S'0.0'
p12389
tp12390
Rp12391
ag2
(S'3.0'
p12392
tp12393
Rp12394
ag2
(g128
tp12395
Rp12396
aa(lp12397
g2
(S'41.0'
p12398
tp12399
Rp12400
ag2
(S'1.0'
p12401
tp12402
Rp12403
ag2
(S'2.0'
p12404
tp12405
Rp12406
ag2
(S'120.0'
p12407
tp12408
Rp12409
ag2
(S'157.0'
p12410
tp12411
Rp12412
ag2
(S'0.0'
p12413
tp12414
Rp12415
ag2
(S'0.0'
p12416
tp12417
Rp12418
ag2
(S'182.0'
p12419
tp12420
Rp12421
ag2
(S'0.0'
p12422
tp12423
Rp12424
ag2
(S'0.0'
p12425
tp12426
Rp12427
ag2
(S'1.0'
p12428
tp12429
Rp12430
ag2
(S'0.0'
p12431
tp12432
Rp12433
ag2
(S'3.0'
p12434
tp12435
Rp12436
ag2
(g42
tp12437
Rp12438
aa(lp12439
g2
(S'59.0'
p12440
tp12441
Rp12442
ag2
(S'1.0'
p12443
tp12444
Rp12445
ag2
(S'4.0'
p12446
tp12447
Rp12448
ag2
(S'164.0'
p12449
tp12450
Rp12451
ag2
(S'176.0'
p12452
tp12453
Rp12454
ag2
(S'1.0'
p12455
tp12456
Rp12457
ag2
(S'2.0'
p12458
tp12459
Rp12460
ag2
(S'90.0'
p12461
tp12462
Rp12463
ag2
(S'0.0'
p12464
tp12465
Rp12466
ag2
(S'1.0'
p12467
tp12468
Rp12469
ag2
(S'2.0'
p12470
tp12471
Rp12472
ag2
(S'2.0'
p12473
tp12474
Rp12475
ag2
(S'6.0'
p12476
tp12477
Rp12478
ag2
(g297
tp12479
Rp12480
aa(lp12481
g2
(S'57.0'
p12482
tp12483
Rp12484
ag2
(S'0.0'
p12485
tp12486
Rp12487
ag2
(S'4.0'
p12488
tp12489
Rp12490
ag2
(S'140.0'
p12491
tp12492
Rp12493
ag2
(S'241.0'
p12494
tp12495
Rp12496
ag2
(S'0.0'
p12497
tp12498
Rp12499
ag2
(S'0.0'
p12500
tp12501
Rp12502
ag2
(S'123.0'
p12503
tp12504
Rp12505
ag2
(S'1.0'
p12506
tp12507
Rp12508
ag2
(S'0.2'
p12509
tp12510
Rp12511
ag2
(S'2.0'
p12512
tp12513
Rp12514
ag2
(S'0.0'
p12515
tp12516
Rp12517
ag2
(S'7.0'
p12518
tp12519
Rp12520
ag2
(g128
tp12521
Rp12522
aa(lp12523
g2
(S'45.0'
p12524
tp12525
Rp12526
ag2
(S'1.0'
p12527
tp12528
Rp12529
ag2
(S'1.0'
p12530
tp12531
Rp12532
ag2
(S'110.0'
p12533
tp12534
Rp12535
ag2
(S'264.0'
p12536
tp12537
Rp12538
ag2
(S'0.0'
p12539
tp12540
Rp12541
ag2
(S'0.0'
p12542
tp12543
Rp12544
ag2
(S'132.0'
p12545
tp12546
Rp12547
ag2
(S'0.0'
p12548
tp12549
Rp12550
ag2
(S'1.2'
p12551
tp12552
Rp12553
ag2
(S'2.0'
p12554
tp12555
Rp12556
ag2
(S'0.0'
p12557
tp12558
Rp12559
ag2
(S'7.0'
p12560
tp12561
Rp12562
ag2
(g128
tp12563
Rp12564
aa(lp12565
g2
(S'68.0'
p12566
tp12567
Rp12568
ag2
(S'1.0'
p12569
tp12570
Rp12571
ag2
(S'4.0'
p12572
tp12573
Rp12574
ag2
(S'144.0'
p12575
tp12576
Rp12577
ag2
(S'193.0'
p12578
tp12579
Rp12580
ag2
(S'1.0'
p12581
tp12582
Rp12583
ag2
(S'0.0'
p12584
tp12585
Rp12586
ag2
(S'141.0'
p12587
tp12588
Rp12589
ag2
(S'0.0'
p12590
tp12591
Rp12592
ag2
(S'3.4'
p12593
tp12594
Rp12595
ag2
(S'2.0'
p12596
tp12597
Rp12598
ag2
(S'2.0'
p12599
tp12600
Rp12601
ag2
(S'7.0'
p12602
tp12603
Rp12604
ag2
(g85
tp12605
Rp12606
aa(lp12607
g2
(S'57.0'
p12608
tp12609
Rp12610
ag2
(S'1.0'
p12611
tp12612
Rp12613
ag2
(S'4.0'
p12614
tp12615
Rp12616
ag2
(S'130.0'
p12617
tp12618
Rp12619
ag2
(S'131.0'
p12620
tp12621
Rp12622
ag2
(S'0.0'
p12623
tp12624
Rp12625
ag2
(S'0.0'
p12626
tp12627
Rp12628
ag2
(S'115.0'
p12629
tp12630
Rp12631
ag2
(S'1.0'
p12632
tp12633
Rp12634
ag2
(S'1.2'
p12635
tp12636
Rp12637
ag2
(S'2.0'
p12638
tp12639
Rp12640
ag2
(S'1.0'
p12641
tp12642
Rp12643
ag2
(S'7.0'
p12644
tp12645
Rp12646
ag2
(g297
tp12647
Rp12648
aa(lp12649
g2
(S'57.0'
p12650
tp12651
Rp12652
ag2
(S'0.0'
p12653
tp12654
Rp12655
ag2
(S'2.0'
p12656
tp12657
Rp12658
ag2
(S'130.0'
p12659
tp12660
Rp12661
ag2
(S'236.0'
p12662
tp12663
Rp12664
ag2
(S'0.0'
p12665
tp12666
Rp12667
ag2
(S'2.0'
p12668
tp12669
Rp12670
ag2
(S'174.0'
p12671
tp12672
Rp12673
ag2
(S'0.0'
p12674
tp12675
Rp12676
ag2
(S'0.0'
p12677
tp12678
Rp12679
ag2
(S'2.0'
p12680
tp12681
Rp12682
ag2
(S'1.0'
p12683
tp12684
Rp12685
ag2
(S'3.0'
p12686
tp12687
Rp12688
ag2
(g128
tp12689
Rp12690
aa(lp12691
g2
(S'38.0'
p12692
tp12693
Rp12694
ag2
(S'1.0'
p12695
tp12696
Rp12697
ag2
(S'3.0'
p12698
tp12699
Rp12700
ag2
(S'138.0'
p12701
tp12702
Rp12703
ag2
(S'175.0'
p12704
tp12705
Rp12706
ag2
(S'0.0'
p12707
tp12708
Rp12709
ag2
(S'0.0'
p12710
tp12711
Rp12712
ag2
(S'173.0'
p12713
tp12714
Rp12715
ag2
(S'0.0'
p12716
tp12717
Rp12718
ag2
(S'0.0'
p12719
tp12720
Rp12721
ag2
(S'1.0'
p12722
tp12723
Rp12724
ag2
(S'0.0'
p12725
tp12726
Rp12727
ag2
(S'3.0'
p12728
tp12729
Rp12730
ag2
(g42
tp12731
Rp12732
aa.